gpasm-1.4.0 #1106 (Oct  6 2014) obj\Debug\ssd   1-13-2021  14:26:32         PAGE  1


LOC    OBJECT CODE    LINE  SOURCE TEXT
  VALUE

                      00001 ;--------------------------------------------------------
                      00002 ; File Created by SDCC : free open source ANSI-C Compiler
                      00003 ; Version 3.5.0 #9253 (Jun 20 2015) (MINGW32)
                      00004 ; This file was generated Wed Jan 13 14:26:32 2021
                      00005 ;--------------------------------------------------------
                      00006 ; PIC port for the 14-bit core
                      00007 ;--------------------------------------------------------
                      00008         .file   "ssd.c"
                      00009         list    p=16f877a
                      00010         radix dec
                      00011         include "p16f877a.inc"
                      00001         LIST
                      00002 
                      00003 ;==========================================================================
                      00004 ; Build date : Aug 07 2014
                      00005 ;  MPASM PIC16F877A processor include
                      00006 ; 
                      00007 ;  (c) Copyright 1999-2014 Microchip Technology, All rights reserved
                      00008 ;==========================================================================
                      00009 
                      00567         LIST
                      00012 ;--------------------------------------------------------
                      00013 ; external declarations
                      00014 ;--------------------------------------------------------
  0000                00015         extern  _UTIL_DelayMS
  0000                00016         extern  _STATUSbits
  0000                00017         extern  _PORTAbits
  0000                00018         extern  _PORTBbits
  0000                00019         extern  _PORTCbits
  0000                00020         extern  _PORTDbits
  0000                00021         extern  _PORTEbits
  0000                00022         extern  _INTCONbits
  0000                00023         extern  _PIR1bits
  0000                00024         extern  _PIR2bits
  0000                00025         extern  _T1CONbits
  0000                00026         extern  _T2CONbits
  0000                00027         extern  _SSPCONbits
  0000                00028         extern  _CCP1CONbits
  0000                00029         extern  _RCSTAbits
  0000                00030         extern  _CCP2CONbits
  0000                00031         extern  _ADCON0bits
  0000                00032         extern  _OPTION_REGbits
  0000                00033         extern  _TRISAbits
  0000                00034         extern  _TRISBbits
  0000                00035         extern  _TRISCbits
  0000                00036         extern  _TRISDbits
  0000                00037         extern  _TRISEbits
  0000                00038         extern  _PIE1bits
  0000                00039         extern  _PIE2bits
  0000                00040         extern  _PCONbits
  0000                00041         extern  _SSPCON2bits
  0000                00042         extern  _SSPSTATbits
  0000                00043         extern  _TXSTAbits
gpasm-1.4.0 #1106 (Oct  6 2014) obj\Debug\ssd   1-13-2021  14:26:32         PAGE  2


LOC    OBJECT CODE    LINE  SOURCE TEXT
  VALUE

  0000                00044         extern  _CMCONbits
  0000                00045         extern  _CVRCONbits
  0000                00046         extern  _ADCON1bits
  0000                00047         extern  _EECON1bits
  0000                00048         extern  _INDF
  0000                00049         extern  _TMR0
  0000                00050         extern  _PCL
  0000                00051         extern  _STATUS
  0000                00052         extern  _FSR
  0000                00053         extern  _PORTA
  0000                00054         extern  _PORTB
  0000                00055         extern  _PORTC
  0000                00056         extern  _PORTD
  0000                00057         extern  _PORTE
  0000                00058         extern  _PCLATH
  0000                00059         extern  _INTCON
  0000                00060         extern  _PIR1
  0000                00061         extern  _PIR2
  0000                00062         extern  _TMR1
  0000                00063         extern  _TMR1L
  0000                00064         extern  _TMR1H
  0000                00065         extern  _T1CON
  0000                00066         extern  _TMR2
  0000                00067         extern  _T2CON
  0000                00068         extern  _SSPBUF
  0000                00069         extern  _SSPCON
  0000                00070         extern  _CCPR1
  0000                00071         extern  _CCPR1L
  0000                00072         extern  _CCPR1H
  0000                00073         extern  _CCP1CON
  0000                00074         extern  _RCSTA
  0000                00075         extern  _TXREG
  0000                00076         extern  _RCREG
  0000                00077         extern  _CCPR2
  0000                00078         extern  _CCPR2L
  0000                00079         extern  _CCPR2H
  0000                00080         extern  _CCP2CON
  0000                00081         extern  _ADRESH
  0000                00082         extern  _ADCON0
  0000                00083         extern  _OPTION_REG
  0000                00084         extern  _TRISA
  0000                00085         extern  _TRISB
  0000                00086         extern  _TRISC
  0000                00087         extern  _TRISD
  0000                00088         extern  _TRISE
  0000                00089         extern  _PIE1
  0000                00090         extern  _PIE2
  0000                00091         extern  _PCON
  0000                00092         extern  _SSPCON2
  0000                00093         extern  _PR2
  0000                00094         extern  _SSPADD
  0000                00095         extern  _SSPSTAT
  0000                00096         extern  _TXSTA
gpasm-1.4.0 #1106 (Oct  6 2014) obj\Debug\ssd   1-13-2021  14:26:32         PAGE  3


LOC    OBJECT CODE    LINE  SOURCE TEXT
  VALUE

  0000                00097         extern  _SPBRG
  0000                00098         extern  _CMCON
  0000                00099         extern  _CVRCON
  0000                00100         extern  _ADRESL
  0000                00101         extern  _ADCON1
  0000                00102         extern  _EEDATA
  0000                00103         extern  _EEADR
  0000                00104         extern  _EEDATH
  0000                00105         extern  _EEADRH
  0000                00106         extern  _EECON1
  0000                00107         extern  _EECON2
                      00108 
  0000                00109         extern PSAVE
  0000                00110         extern SSAVE
  0000                00111         extern WSAVE
  0000                00112         extern STK12
  0000                00113         extern STK11
  0000                00114         extern STK10
  0000                00115         extern STK09
  0000                00116         extern STK08
  0000                00117         extern STK07
  0000                00118         extern STK06
  0000                00119         extern STK05
  0000                00120         extern STK04
  0000                00121         extern STK03
  0000                00122         extern STK02
  0000                00123         extern STK01
  0000                00124         extern STK00
                      00125 ;--------------------------------------------------------
                      00126 ; global declarations
                      00127 ;--------------------------------------------------------
  0000                00128         global  _SSD_DisplayToggle
  0000                00129         global  _SSD_GetState
  0000                00130         global  _SSD_GetSymbol
  0000                00131         global  _SSD_SetState
  0000                00132         global  _SSD_SetLed
  0000                00133         global  _SSD_SetSymbol
  0000                00134         global  _SSD_SetMode
  0000                00135         global  _SSD_getCurrentSSD
  0000                00136         global  _SSD_Update
  0000                00137         global  _SSD_Init
  0000                00138         global  _ssd_symbols
                      00139 
                      00140 ;--------------------------------------------------------
                      00141 ; global definitions
                      00142 ;--------------------------------------------------------
                      00143 ;--------------------------------------------------------
                      00144 ; absolute symbol definitions
                      00145 ;--------------------------------------------------------
                      00146 ;--------------------------------------------------------
                      00147 ; compiler-defined variables
                      00148 ;--------------------------------------------------------
                      00149 UDL_ssd_0       udata
gpasm-1.4.0 #1106 (Oct  6 2014) obj\Debug\ssd   1-13-2021  14:26:32         PAGE  4


LOC    OBJECT CODE    LINE  SOURCE TEXT
  VALUE

0000                  00150 r0x1028 res     1
0001                  00151 r0x1029 res     1
0002                  00152 r0x102A res     1
0003                  00153 r0x102B res     1
0004                  00154 r0x1025 res     1
0005                  00155 r0x1026 res     1
0006                  00156 r0x1027 res     1
0007                  00157 r0x1022 res     1
0008                  00158 r0x1023 res     1
0009                  00159 r0x1024 res     1
000A                  00160 r0x1016 res     1
000B                  00161 r0x1017 res     1
000C                  00162 r0x1018 res     1
000D                  00163 r0x1019 res     1
000E                  00164 r0x101F res     1
000F                  00165 r0x1020 res     1
0010                  00166 r0x101D res     1
0011                  00167 r0x101E res     1
0012                  00168 r0x101A res     1
0013                  00169 r0x101B res     1
0014                  00170 r0x101C res     1
                      00171 ;--------------------------------------------------------
                      00172 ; initialized data
                      00173 ;--------------------------------------------------------
                      00174 
                      00175 ID_ssd_0        idata
0000                  00176 _ssd_symbols
0000   0A             00177         db      0x0a
0001   00             00178         db      0x00
0002   00             00179         db      0x00
0003   00             00180         db      0x00
                      00181 
                      00182 
                      00183 ID_ssd_1        idata
0000                  00184 _ssd_data
0000   3F             00185         db      0x3f
0001   06             00186         db      0x06
0002   5B             00187         db      0x5b
0003   4F             00188         db      0x4f
0004   66             00189         db      0x66
0005   6D             00190         db      0x6d
0006   7D             00191         db      0x7d
0007   07             00192         db      0x07
0008   7F             00193         db      0x7f
0009   6F             00194         db      0x6f
000A   00             00195         db      0x00
                      00196 
                      00197 
                      00198 ID_ssd_2        idata
0000                  00199 _current_ssd
0000   00             00200         db      0x00
                      00201 
                      00202 
gpasm-1.4.0 #1106 (Oct  6 2014) obj\Debug\ssd   1-13-2021  14:26:32         PAGE  5


LOC    OBJECT CODE    LINE  SOURCE TEXT
  VALUE

                      00203 ID_ssd_3        idata
0000                  00204 _current_mode
0000   00             00205         db      0x00
                      00206 
                      00207 
                      00208 ID_ssd_4        idata
0000                  00209 _toggle
0000   00             00210         db      0x00
0001   00             00211         db      0x00
                      00212 
                      00213 
                      00214 ID_ssd_5        idata
0000                  00215 _period
0000   00             00216         db      0x00
0001   00             00217         db      0x00
                      00218 
                      00219 
                      00220 ID_ssd_6        idata
0000                  00221 _led
0000   00             00222         db      0x00
                      00223 
                      00224 ;--------------------------------------------------------
                      00225 ; overlayable items in internal ram 
                      00226 ;--------------------------------------------------------
                      00227 ;       udata_ovr
                      00228 ;--------------------------------------------------------
                      00229 ; code
                      00230 ;--------------------------------------------------------
                      00231 code_ssd        code
                      00232 ;***
                      00233 ;  pBlock Stats: dbName = C
                      00234 ;***
                      00235 ;entry:  _SSD_DisplayToggle     ;Function start
                      00236 ; 2 exit points
                      00237 ;has an exit
                      00238 ;functions called:
                      00239 ;   _SSD_SetState
                      00240 ;   _SSD_SetState
                      00241 ;   _SSD_SetState
                      00242 ;   _SSD_SetState
                      00243 ;   _SSD_SetState
                      00244 ;   _SSD_SetState
                      00245 ;4 compiler assigned registers:
                      00246 ;   r0x101A
                      00247 ;   STK00
                      00248 ;   r0x101B
                      00249 ;   r0x101C
                      00250 ;; Starting pCode block
                      00251 ;;; /home/sdcc-builder/build/sdcc-build/orig/sdcc/src/pic14/gen.c:2316:resultRemat *{*
                      00252 ;;; /home/sdcc-builder/build/sdcc-build/orig/sdcc/src/pic14/gen.c:2760:genLabel *{*
                      00253 ;; ***  genLabel  2763
                      00254 ;;; /home/sdcc-builder/build/sdcc-build/orig/sdcc/src/pic14/gen.c:2316:resultRemat *{*
                      00255 ;;; /home/sdcc-builder/build/sdcc-build/orig/sdcc/src/pic14/gen.c:2340:genFunction *{*
gpasm-1.4.0 #1106 (Oct  6 2014) obj\Debug\ssd   1-13-2021  14:26:32         PAGE  6


LOC    OBJECT CODE    LINE  SOURCE TEXT
  VALUE

                      00256 ;; ***  genFunction  2342 curr label offset=89previous max_key=13 
0000                  00257 _SSD_DisplayToggle      ;Function start
                      00258 ; 2 exit points
                      00259 ;;; /home/sdcc-builder/build/sdcc-build/orig/sdcc/src/pic14/gen.c:2316:resultRemat *{*
                      00260 ;;; /home/sdcc-builder/build/sdcc-build/orig/sdcc/src/pic14/gen.c:7358:genReceive *{*
                      00261 ;; ***  genReceive  7359
                      00262 ;;      694 register type nRegs=1
                      00263 ;;; /home/sdcc-builder/build/sdcc-build/orig/sdcc/src/pic14/gen.c:1907:assignResultValue *{*
                      00264 ;; ***  assignResultValue  1909
                      00265 ;;      line = 1911 result -=-, size=0, left AOP_REG=r0x1060, size=1, right -=-, size=0
                      00266 ;; >>> /home/sdcc-builder/build/sdcc-build/orig/sdcc/src/pic14/gen.c:1393:movwf
                      00267 ;;      1109 rIdx = r0x1060 
                      00268         .line   194; "ssd.c"    void SSD_DisplayToggle(tSSD firstSSD,tSSD secondSSD){
0000   ???? ????      00269         BANKSEL r0x101A
0002   00??           00270         MOVWF   r0x101A
                      00271 ;;; /home/sdcc-builder/build/sdcc-build/orig/sdcc/src/pic14/gen.c:2316:resultRemat *{*
                      00272 ;;; /home/sdcc-builder/build/sdcc-build/orig/sdcc/src/pic14/gen.c:7358:genReceive *{*
                      00273 ;; ***  genReceive  7359
                      00274 ;;      694 register type nRegs=1
                      00275 ;;; /home/sdcc-builder/build/sdcc-build/orig/sdcc/src/pic14/gen.c:1907:assignResultValue *{*
                      00276 ;; ***  assignResultValue  1909
                      00277 ;;      line = 1911 result -=-, size=0, left AOP_REG=r0x1061, size=1, right -=-, size=0
                      00278 ;; >>> /home/sdcc-builder/build/sdcc-build/orig/sdcc/src/pic14/gen.c:1423:get_returnvalue
                      00279 ;; ***  popRegFromIdx,1042  , rIdx=0x7f
0003   08??           00280         MOVF    STK00,W
                      00281 ;; >>> /home/sdcc-builder/build/sdcc-build/orig/sdcc/src/pic14/gen.c:1393:movwf
                      00282 ;;      1109 rIdx = r0x1061 
0004   00??           00283         MOVWF   r0x101B
                      00284 ;;; /home/sdcc-builder/build/sdcc-build/orig/sdcc/src/pic14/gen.c:2316:resultRemat *{*
                      00285 ;;; /home/sdcc-builder/build/sdcc-build/orig/sdcc/src/pic14/gen.c:3619:genCmpEq *{*
                      00286 ;; ***  genCmpEq  3620
                      00287 ;; ifx is null
                      00288 ;; ***  aopForSym 315
                      00289 ;;      327 sym->rname = _current_ssd, size = 1
                      00290 ;;      694 register type nRegs=1
                      00291 ;;      694 register type nRegs=1
                      00292 ;;      line = 3631 result AOP_REG=r0x1062, size=1, left AOP_DIR=_current_ssd, size=1, right AOP_REG=r0x
                            1060, size=1
                      00293 ;; >>> /home/sdcc-builder/build/sdcc-build/orig/sdcc/src/pic14/gen.c:3657:genCmpEq
                      00294 ;;      1109 rIdx = r0x1062 
                      00295         .line   196; "ssd.c"    if(current_ssd==firstSSD  && toggle[0]==TOGGLE_OFF){
0005   01??           00296         CLRF    r0x101C
                      00297 ;; ***  mov2w  1381  offset=0
                      00298 ;; >>> /home/sdcc-builder/build/sdcc-build/orig/sdcc/src/pic14/gen.c:1386:mov2w
                      00299 ;;      1109 rIdx = r0x1060 
0006   08??           00300         MOVF    r0x101A,W
                      00301 ;; >>> /home/sdcc-builder/build/sdcc-build/orig/sdcc/src/pic14/gen.c:3703:genCmpEq
                      00302 ;;      1009
                      00303 ;;      1028  _current_ssd   offset=0
0007   ???? ????      00304         BANKSEL _current_ssd
0009   06??           00305         XORWF   _current_ssd,W
000A   1D03           00306         BTFSS   STATUS,2
000B   2???           00307         GOTO    _00001_DS_
gpasm-1.4.0 #1106 (Oct  6 2014) obj\Debug\ssd   1-13-2021  14:26:32         PAGE  7


LOC    OBJECT CODE    LINE  SOURCE TEXT
  VALUE

000C   ???? ????      00308         BANKSEL r0x101C
000E   0A??           00309         INCF    r0x101C,F
000F                  00310 _00001_DS_
000F   ???? ????      00311         BANKSEL r0x101C
0011   08??           00312         MOVF    r0x101C,W
0012   1903           00313         BTFSC   STATUS,2
                      00314 ;; >>> /home/sdcc-builder/build/sdcc-build/orig/sdcc/src/pic14/gen.c:6814:genIfx
                      00315 ;; ***  popGetLabel  key=26, label offset 106
0013   2???           00316         GOTO    _00232_DS_
                      00317 ;;; /home/sdcc-builder/build/sdcc-build/orig/sdcc/src/pic14/gen.c:2316:resultRemat *{*
                      00318 ;;; /home/sdcc-builder/build/sdcc-build/orig/sdcc/src/pic14/gen.c:2316:resultRemat *{*
                      00319 ;;; /home/sdcc-builder/build/sdcc-build/orig/sdcc/src/pic14/gen.c:6162:genPointerGet *{*
                      00320 ;; ***  genPointerGet  6163
                      00321 ;;; /home/sdcc-builder/build/sdcc-build/orig/sdcc/src/pic14/gen.c:5944:genNearPointerGet *{*
                      00322 ;; ***  genNearPointerGet  5945
                      00323 ;;      613
                      00324 ;;      aopForRemat 392
                      00325 ;;      418: rname _toggle, val 0, const = 0
                      00326 ;;; /home/sdcc-builder/build/sdcc-build/orig/sdcc/src/pic14/gen.c:5898:genDataPointerGet *{*
                      00327 ;; ***  genDataPointerGet  5899
                      00328 ;;      694 register type nRegs=1
                      00329 ;;      833: aopGet AOP_PCODE type PO_IMMEDIATE
                      00330 ;;      _toggle
                      00331 ;;      line = 5911 result AOP_REG=r0x1060, size=1, left AOP_PCODE=_toggle, size=2, right -=-, size=0
                      00332 ;; >>> /home/sdcc-builder/build/sdcc-build/orig/sdcc/src/pic14/gen.c:5922:genDataPointerGet
                      00333 ;;      popGet AOP_PCODE (PO_IMMEDIATE + 0) 1130 _toggle
0014   ???? ????      00334         BANKSEL _toggle
0016   08??           00335         MOVF    (_toggle + 0),W
0017   ???? ????      00336         BANKSEL r0x101A
0019   00??           00337         MOVWF   r0x101A
001A   1D03           00338         BTFSS   STATUS,2
                      00339 ;; >>> /home/sdcc-builder/build/sdcc-build/orig/sdcc/src/pic14/gen.c:6809:genIfx
                      00340 ;; ***  popGetLabel  key=26, label offset 106
001B   2???           00341         GOTO    _00232_DS_
                      00342 ;;; /home/sdcc-builder/build/sdcc-build/orig/sdcc/src/pic14/gen.c:2316:resultRemat *{*
                      00343 ;;; /home/sdcc-builder/build/sdcc-build/orig/sdcc/src/pic14/gen.c:2316:resultRemat *{*
                      00344 ;;; /home/sdcc-builder/build/sdcc-build/orig/sdcc/src/pic14/gen.c:6162:genPointerGet *{*
                      00345 ;; ***  genPointerGet  6163
                      00346 ;;; /home/sdcc-builder/build/sdcc-build/orig/sdcc/src/pic14/gen.c:5944:genNearPointerGet *{*
                      00347 ;; ***  genNearPointerGet  5945
                      00348 ;;      613
                      00349 ;;      aopForRemat 392
                      00350 ;;      418: rname _period, val 0, const = 0
                      00351 ;;; /home/sdcc-builder/build/sdcc-build/orig/sdcc/src/pic14/gen.c:5898:genDataPointerGet *{*
                      00352 ;; ***  genDataPointerGet  5899
                      00353 ;;      694 register type nRegs=1
                      00354 ;;      833: aopGet AOP_PCODE type PO_IMMEDIATE
                      00355 ;;      _period
                      00356 ;;      line = 5911 result AOP_REG=r0x1060, size=1, left AOP_PCODE=_period, size=2, right -=-, size=0
                      00357 ;; >>> /home/sdcc-builder/build/sdcc-build/orig/sdcc/src/pic14/gen.c:5922:genDataPointerGet
                      00358 ;;      popGet AOP_PCODE (PO_IMMEDIATE + 0) 1130 _period
                      00359         .line   197; "ssd.c"    if(period[0]<MAX_PERIOD){
001C   ???? ????      00360         BANKSEL _period
gpasm-1.4.0 #1106 (Oct  6 2014) obj\Debug\ssd   1-13-2021  14:26:32         PAGE  8


LOC    OBJECT CODE    LINE  SOURCE TEXT
  VALUE

001E   08??           00361         MOVF    (_period + 0),W
                      00362 ;; >>> /home/sdcc-builder/build/sdcc-build/orig/sdcc/src/pic14/gen.c:5923:genDataPointerGet
                      00363 ;;      1109 rIdx = r0x1060 
001F   ???? ????      00364         BANKSEL r0x101A
0021   00??           00365         MOVWF   r0x101A
                      00366 ;;; /home/sdcc-builder/build/sdcc-build/orig/sdcc/src/pic14/gen.c:2316:resultRemat *{*
                      00367 ;;; /home/sdcc-builder/build/sdcc-build/orig/sdcc/src/pic14/gen.c:3583:genCmpLt *{*
                      00368 ;; ***  genCmpLt  3584
                      00369 ;;      694 register type nRegs=1
                      00370 ;;; /home/sdcc-builder/build/sdcc-build/orig/sdcc/src/pic14/gen.c:3294:genCmp *{*
                      00371 ;;unsigned compare: left < lit(0xA=10), size=1
                      00372 ;; >>> /home/sdcc-builder/build/sdcc-build/orig/sdcc/src/pic14/gen.c:3265:pic14_mov2w_regOrLit
0022   300A           00373         MOVLW   0x0a
                      00374 ;; >>> /home/sdcc-builder/build/sdcc-build/orig/sdcc/src/pic14/gen.c:3432:genCmp
                      00375 ;;      1109 rIdx = r0x1060 
0023   02??           00376         SUBWF   r0x101A,W
                      00377 ;;; /home/sdcc-builder/build/sdcc-build/orig/sdcc/src/pic14/gen.c:3237:genSkipc *{*
                      00378 ;; >>> /home/sdcc-builder/build/sdcc-build/orig/sdcc/src/pic14/gen.c:3242:genSkipc
0024   1803           00379         BTFSC   STATUS,0
                      00380 ;; >>> /home/sdcc-builder/build/sdcc-build/orig/sdcc/src/pic14/gen.c:3246:genSkipc
                      00381 ;; ***  popGetLabel  key=2, label offset 106
0025   2???           00382         GOTO    _00208_DS_
                      00383 ;;genSkipc:3247: created from rifx:027A5DF4
                      00384 ;;; /home/sdcc-builder/build/sdcc-build/orig/sdcc/src/pic14/gen.c:2316:resultRemat *{*
                      00385 ;;; /home/sdcc-builder/build/sdcc-build/orig/sdcc/src/pic14/gen.c:2316:resultRemat *{*
                      00386 ;; ***  genPlus  611
                      00387 ;;; /home/sdcc-builder/build/sdcc-build/orig/sdcc/src/pic14/genarith.c:612:genPlus *{*
                      00388 ;;      694 register type nRegs=1
                      00389 ;;      694 register type nRegs=1
                      00390 ;;      line = 618 result AOP_REG=r0x1060, size=1, left AOP_REG=r0x1060, size=1, right AOP_LIT=0x01, siz
                            e=1
                      00391 ;;; /home/sdcc-builder/build/sdcc-build/orig/sdcc/src/pic14/genarith.c:142:genPlusIncr *{*
                      00392 ;; ***  genPlusIncr  144
                      00393 ;;      result AOP_REG, left AOP_REG, right AOP_LIT
                      00394 ;;      genPlusIncr  156
                      00395 ;; >>> /home/sdcc-builder/build/sdcc-build/orig/sdcc/src/pic14/genarith.c:168:genPlusIncr
                      00396 ;;      1109 rIdx = r0x1060 
                      00397         .line   198; "ssd.c"    period[0]++;
0026   0A??           00398         INCF    r0x101A,F
                      00399 ;;; /home/sdcc-builder/build/sdcc-build/orig/sdcc/src/pic14/gen.c:2316:resultRemat *{*
                      00400 ;;; /home/sdcc-builder/build/sdcc-build/orig/sdcc/src/pic14/gen.c:6686:genPointerSet *{*
                      00401 ;; ***  genPointerSet  6687
                      00402 ;;; /home/sdcc-builder/build/sdcc-build/orig/sdcc/src/pic14/gen.c:6505:genNearPointerSet *{*
                      00403 ;; ***  genNearPointerSet  6506
                      00404 ;;      613
                      00405 ;;      aopForRemat 392
                      00406 ;;      418: rname _period, val 0, const = 0
                      00407 ;;; /home/sdcc-builder/build/sdcc-build/orig/sdcc/src/pic14/gen.c:6443:genDataPointerSet *{*
                      00408 ;; ***  genDataPointerSet  6444
                      00409 ;;      694 register type nRegs=1
                      00410 ;;/home/sdcc-builder/build/sdcc-build/orig/sdcc/src/pic14/gen.c:6461: size=0, offset=0, AOP_TYPE(res)=8
                      00411 ;; >>> /home/sdcc-builder/build/sdcc-build/orig/sdcc/src/pic14/gen.c:6481:genDataPointerSet
                      00412 ;;      1109 rIdx = r0x1060 
gpasm-1.4.0 #1106 (Oct  6 2014) obj\Debug\ssd   1-13-2021  14:26:32         PAGE  9


LOC    OBJECT CODE    LINE  SOURCE TEXT
  VALUE

0027   08??           00413         MOVF    r0x101A,W
                      00414 ;; >>> /home/sdcc-builder/build/sdcc-build/orig/sdcc/src/pic14/gen.c:6482:genDataPointerSet
                      00415 ;;      popGet AOP_PCODE (PO_IMMEDIATE + 0) 1130 _period
0028   ???? ????      00416         BANKSEL _period
002A   00??           00417         MOVWF   (_period + 0)
                      00418 ;;; /home/sdcc-builder/build/sdcc-build/orig/sdcc/src/pic14/gen.c:2316:resultRemat *{*
                      00419 ;;; /home/sdcc-builder/build/sdcc-build/orig/sdcc/src/pic14/gen.c:2778:genGoto *{*
                      00420 ;; >>> /home/sdcc-builder/build/sdcc-build/orig/sdcc/src/pic14/gen.c:2780:genGoto
                      00421 ;; ***  popGetLabel  key=29, label offset 106
002B   2???           00422         GOTO    _00235_DS_
                      00423 ;;; /home/sdcc-builder/build/sdcc-build/orig/sdcc/src/pic14/gen.c:2316:resultRemat *{*
                      00424 ;;; /home/sdcc-builder/build/sdcc-build/orig/sdcc/src/pic14/gen.c:2760:genLabel *{*
                      00425 ;; ***  genLabel  2763
                      00426 ;;; /home/sdcc-builder/build/sdcc-build/orig/sdcc/src/pic14/gen.c:2316:resultRemat *{*
                      00427 ;;; /home/sdcc-builder/build/sdcc-build/orig/sdcc/src/pic14/gen.c:6686:genPointerSet *{*
                      00428 ;; ***  genPointerSet  6687
                      00429 ;;; /home/sdcc-builder/build/sdcc-build/orig/sdcc/src/pic14/gen.c:6505:genNearPointerSet *{*
                      00430 ;; ***  genNearPointerSet  6506
                      00431 ;;      613
                      00432 ;;      aopForRemat 392
                      00433 ;;      418: rname _period, val 0, const = 0
                      00434 ;;; /home/sdcc-builder/build/sdcc-build/orig/sdcc/src/pic14/gen.c:6443:genDataPointerSet *{*
                      00435 ;; ***  genDataPointerSet  6444
                      00436 ;;/home/sdcc-builder/build/sdcc-build/orig/sdcc/src/pic14/gen.c:6461: size=0, offset=0, AOP_TYPE(res)=8
                      00437 ;; >>> /home/sdcc-builder/build/sdcc-build/orig/sdcc/src/pic14/gen.c:6475:genDataPointerSet
                      00438 ;;      popGet AOP_PCODE (PO_IMMEDIATE + 0) 1130 _period
002C                  00439 _00208_DS_
                      00440         .line   201; "ssd.c"    period[0]=MIN_PERIOD;
002C   ???? ????      00441         BANKSEL _period
002E   01??           00442         CLRF    (_period + 0)
                      00443 ;;; /home/sdcc-builder/build/sdcc-build/orig/sdcc/src/pic14/gen.c:2316:resultRemat *{*
                      00444 ;;; /home/sdcc-builder/build/sdcc-build/orig/sdcc/src/pic14/gen.c:6686:genPointerSet *{*
                      00445 ;; ***  genPointerSet  6687
                      00446 ;;; /home/sdcc-builder/build/sdcc-build/orig/sdcc/src/pic14/gen.c:6505:genNearPointerSet *{*
                      00447 ;; ***  genNearPointerSet  6506
                      00448 ;;      613
                      00449 ;;      aopForRemat 392
                      00450 ;;      418: rname _toggle, val 0, const = 0
                      00451 ;;; /home/sdcc-builder/build/sdcc-build/orig/sdcc/src/pic14/gen.c:6443:genDataPointerSet *{*
                      00452 ;; ***  genDataPointerSet  6444
                      00453 ;;/home/sdcc-builder/build/sdcc-build/orig/sdcc/src/pic14/gen.c:6461: size=0, offset=0, AOP_TYPE(res)=8
                      00454 ;; >>> /home/sdcc-builder/build/sdcc-build/orig/sdcc/src/pic14/gen.c:6470:genDataPointerSet
                      00455         .line   202; "ssd.c"    toggle[0]=TOGGLE_ON;
002F   3001           00456         MOVLW   0x01
                      00457 ;; >>> /home/sdcc-builder/build/sdcc-build/orig/sdcc/src/pic14/gen.c:6471:genDataPointerSet
                      00458 ;;      popGet AOP_PCODE (PO_IMMEDIATE + 0) 1130 _toggle
0030   ???? ????      00459         BANKSEL _toggle
0032   00??           00460         MOVWF   (_toggle + 0)
                      00461 ;;; /home/sdcc-builder/build/sdcc-build/orig/sdcc/src/pic14/gen.c:2316:resultRemat *{*
                      00462 ;;; /home/sdcc-builder/build/sdcc-build/orig/sdcc/src/pic14/gen.c:2778:genGoto *{*
                      00463 ;; >>> /home/sdcc-builder/build/sdcc-build/orig/sdcc/src/pic14/gen.c:2780:genGoto
                      00464 ;; ***  popGetLabel  key=29, label offset 106
0033   2???           00465         GOTO    _00235_DS_
gpasm-1.4.0 #1106 (Oct  6 2014) obj\Debug\ssd   1-13-2021  14:26:32         PAGE 10


LOC    OBJECT CODE    LINE  SOURCE TEXT
  VALUE

                      00466 ;;; /home/sdcc-builder/build/sdcc-build/orig/sdcc/src/pic14/gen.c:2316:resultRemat *{*
                      00467 ;;; /home/sdcc-builder/build/sdcc-build/orig/sdcc/src/pic14/gen.c:2760:genLabel *{*
                      00468 ;; ***  genLabel  2763
                      00469 ;;; /home/sdcc-builder/build/sdcc-build/orig/sdcc/src/pic14/gen.c:2316:resultRemat *{*
                      00470 ;;; /home/sdcc-builder/build/sdcc-build/orig/sdcc/src/pic14/gen.c:6759:genIfx *{*
                      00471 ;; ***  genIfx  6760
                      00472 ;;      694 register type nRegs=1
                      00473 ;; ***  pic14_toBoolean  1515
                      00474 ;; >>> /home/sdcc-builder/build/sdcc-build/orig/sdcc/src/pic14/gen.c:1522:pic14_toBoolean
0034                  00475 _00232_DS_
                      00476         .line   204; "ssd.c"    }else if(current_ssd==firstSSD && toggle[0]==TOGGLE_ON){
0034   3000           00477         MOVLW   0x00
                      00478 ;; >>> /home/sdcc-builder/build/sdcc-build/orig/sdcc/src/pic14/gen.c:1533:pic14_toBoolean
                      00479 ;;      1109 rIdx = r0x1062 
0035   ???? ????      00480         BANKSEL r0x101C
0037   04??           00481         IORWF   r0x101C,W
                      00482 ;; >>> /home/sdcc-builder/build/sdcc-build/orig/sdcc/src/pic14/gen.c:6813:genIfx
0038   1903           00483         BTFSC   STATUS,2
                      00484 ;; >>> /home/sdcc-builder/build/sdcc-build/orig/sdcc/src/pic14/gen.c:6814:genIfx
                      00485 ;; ***  popGetLabel  key=22, label offset 106
0039   2???           00486         GOTO    _00228_DS_
                      00487 ;;; /home/sdcc-builder/build/sdcc-build/orig/sdcc/src/pic14/gen.c:2316:resultRemat *{*
                      00488 ;;; /home/sdcc-builder/build/sdcc-build/orig/sdcc/src/pic14/gen.c:2316:resultRemat *{*
                      00489 ;;; /home/sdcc-builder/build/sdcc-build/orig/sdcc/src/pic14/gen.c:6162:genPointerGet *{*
                      00490 ;; ***  genPointerGet  6163
                      00491 ;;; /home/sdcc-builder/build/sdcc-build/orig/sdcc/src/pic14/gen.c:5944:genNearPointerGet *{*
                      00492 ;; ***  genNearPointerGet  5945
                      00493 ;;      613
                      00494 ;;      aopForRemat 392
                      00495 ;;      418: rname _toggle, val 0, const = 0
                      00496 ;;; /home/sdcc-builder/build/sdcc-build/orig/sdcc/src/pic14/gen.c:5898:genDataPointerGet *{*
                      00497 ;; ***  genDataPointerGet  5899
                      00498 ;;      694 register type nRegs=1
                      00499 ;;      833: aopGet AOP_PCODE type PO_IMMEDIATE
                      00500 ;;      _toggle
                      00501 ;;      line = 5911 result AOP_REG=r0x1060, size=1, left AOP_PCODE=_toggle, size=2, right -=-, size=0
                      00502 ;; >>> /home/sdcc-builder/build/sdcc-build/orig/sdcc/src/pic14/gen.c:5922:genDataPointerGet
                      00503 ;;      popGet AOP_PCODE (PO_IMMEDIATE + 0) 1130 _toggle
003A   ???? ????      00504         BANKSEL _toggle
003C   08??           00505         MOVF    (_toggle + 0),W
003D   ???? ????      00506         BANKSEL r0x101A
003F   00??           00507         MOVWF   r0x101A
0040   3A01           00508         XORLW   0x01
                      00509 ;; >>> /home/sdcc-builder/build/sdcc-build/orig/sdcc/src/pic14/gen.c:3687:genCmpEq
0041   1D03           00510         BTFSS   STATUS,2
                      00511 ;; >>> /home/sdcc-builder/build/sdcc-build/orig/sdcc/src/pic14/gen.c:3690:genCmpEq
                      00512 ;; ***  popGetLabel  key=22, label offset 106
0042   2???           00513         GOTO    _00228_DS_
                      00514 ;;; /home/sdcc-builder/build/sdcc-build/orig/sdcc/src/pic14/gen.c:2316:resultRemat *{*
                      00515 ;;; /home/sdcc-builder/build/sdcc-build/orig/sdcc/src/pic14/gen.c:2316:resultRemat *{*
                      00516 ;;; /home/sdcc-builder/build/sdcc-build/orig/sdcc/src/pic14/gen.c:2316:resultRemat *{*
                      00517 ;;; /home/sdcc-builder/build/sdcc-build/orig/sdcc/src/pic14/gen.c:2316:resultRemat *{*
                      00518 ;;; /home/sdcc-builder/build/sdcc-build/orig/sdcc/src/pic14/gen.c:2086:genCall *{*
gpasm-1.4.0 #1106 (Oct  6 2014) obj\Debug\ssd   1-13-2021  14:26:32         PAGE 11


LOC    OBJECT CODE    LINE  SOURCE TEXT
  VALUE

                      00519 ;; ***  genCall  2088
                      00520 ;;; /home/sdcc-builder/build/sdcc-build/orig/sdcc/src/pic14/gen.c:1801:saveRegisters *{*
                      00521 ;; ***  saveRegisters  1803
                      00522 ;; ***  aopForSym 315
                      00523 ;;      327 sym->rname = _current_ssd, size = 1
                      00524 ;;      2135 left AOP_LIT
                      00525 ;;; /home/sdcc-builder/build/sdcc-build/orig/sdcc/src/pic14/gen.c:1343:mov2w_op *{*
                      00526 ;; >>> /home/sdcc-builder/build/sdcc-build/orig/sdcc/src/pic14/gen.c:1361:mov2w_op
                      00527         .line   205; "ssd.c"    SSD_SetState(current_ssd, SSD_ON);
0043   3001           00528         MOVLW   0x01
                      00529 ;; ***  aopForSym 315
                      00530 ;;      327 sym->rname = _current_ssd, size = 1
                      00531 ;;      2135 left AOP_DIR
                      00532 ;; >>> /home/sdcc-builder/build/sdcc-build/orig/sdcc/src/pic14/gen.c:2143:genCall
                      00533 ;; ***  popRegFromIdx,1042  , rIdx=0x7f
0044   00??           00534         MOVWF   STK00
                      00535 ;;; /home/sdcc-builder/build/sdcc-build/orig/sdcc/src/pic14/gen.c:1343:mov2w_op *{*
                      00536 ;; ***  mov2w  1381  offset=0
                      00537 ;; >>> /home/sdcc-builder/build/sdcc-build/orig/sdcc/src/pic14/gen.c:1386:mov2w
                      00538 ;;      1009
                      00539 ;;      1028  _current_ssd   offset=0
0045   ???? ????      00540         BANKSEL _current_ssd
0047   08??           00541         MOVF    _current_ssd,W
                      00542 ;; >>> /home/sdcc-builder/build/sdcc-build/orig/sdcc/src/pic14/gen.c:2175:genCall
0048   2???           00543         CALL    _SSD_SetState
                      00544 ;;; /home/sdcc-builder/build/sdcc-build/orig/sdcc/src/pic14/gen.c:1845:unsaveRegisters *{*
                      00545 ;; ***  unsaveRegisters  1847
                      00546 ;;; /home/sdcc-builder/build/sdcc-build/orig/sdcc/src/pic14/gen.c:2316:resultRemat *{*
                      00547 ;;; /home/sdcc-builder/build/sdcc-build/orig/sdcc/src/pic14/gen.c:2316:resultRemat *{*
                      00548 ;;; /home/sdcc-builder/build/sdcc-build/orig/sdcc/src/pic14/gen.c:6162:genPointerGet *{*
                      00549 ;; ***  genPointerGet  6163
                      00550 ;;; /home/sdcc-builder/build/sdcc-build/orig/sdcc/src/pic14/gen.c:5944:genNearPointerGet *{*
                      00551 ;; ***  genNearPointerGet  5945
                      00552 ;;      613
                      00553 ;;      aopForRemat 392
                      00554 ;;      418: rname _period, val 0, const = 0
                      00555 ;;; /home/sdcc-builder/build/sdcc-build/orig/sdcc/src/pic14/gen.c:5898:genDataPointerGet *{*
                      00556 ;; ***  genDataPointerGet  5899
                      00557 ;;      694 register type nRegs=1
                      00558 ;;      833: aopGet AOP_PCODE type PO_IMMEDIATE
                      00559 ;;      _period
                      00560 ;;      line = 5911 result AOP_REG=r0x1060, size=1, left AOP_PCODE=_period, size=2, right -=-, size=0
                      00561 ;; >>> /home/sdcc-builder/build/sdcc-build/orig/sdcc/src/pic14/gen.c:5922:genDataPointerGet
                      00562 ;;      popGet AOP_PCODE (PO_IMMEDIATE + 0) 1130 _period
                      00563         .line   206; "ssd.c"    if(period[0]<MAX_PERIOD){
0049   ???? ????      00564         BANKSEL _period
004B   08??           00565         MOVF    (_period + 0),W
                      00566 ;; >>> /home/sdcc-builder/build/sdcc-build/orig/sdcc/src/pic14/gen.c:5923:genDataPointerGet
                      00567 ;;      1109 rIdx = r0x1060 
004C   ???? ????      00568         BANKSEL r0x101A
004E   00??           00569         MOVWF   r0x101A
                      00570 ;;; /home/sdcc-builder/build/sdcc-build/orig/sdcc/src/pic14/gen.c:2316:resultRemat *{*
                      00571 ;;; /home/sdcc-builder/build/sdcc-build/orig/sdcc/src/pic14/gen.c:3583:genCmpLt *{*
gpasm-1.4.0 #1106 (Oct  6 2014) obj\Debug\ssd   1-13-2021  14:26:32         PAGE 12


LOC    OBJECT CODE    LINE  SOURCE TEXT
  VALUE

                      00572 ;; ***  genCmpLt  3584
                      00573 ;;      694 register type nRegs=1
                      00574 ;;; /home/sdcc-builder/build/sdcc-build/orig/sdcc/src/pic14/gen.c:3294:genCmp *{*
                      00575 ;;unsigned compare: left < lit(0xA=10), size=1
                      00576 ;; >>> /home/sdcc-builder/build/sdcc-build/orig/sdcc/src/pic14/gen.c:3265:pic14_mov2w_regOrLit
004F   300A           00577         MOVLW   0x0a
                      00578 ;; >>> /home/sdcc-builder/build/sdcc-build/orig/sdcc/src/pic14/gen.c:3432:genCmp
                      00579 ;;      1109 rIdx = r0x1060 
0050   02??           00580         SUBWF   r0x101A,W
                      00581 ;;; /home/sdcc-builder/build/sdcc-build/orig/sdcc/src/pic14/gen.c:3237:genSkipc *{*
                      00582 ;; >>> /home/sdcc-builder/build/sdcc-build/orig/sdcc/src/pic14/gen.c:3242:genSkipc
0051   1803           00583         BTFSC   STATUS,0
                      00584 ;; >>> /home/sdcc-builder/build/sdcc-build/orig/sdcc/src/pic14/gen.c:3246:genSkipc
                      00585 ;; ***  popGetLabel  key=5, label offset 106
0052   2???           00586         GOTO    _00211_DS_
                      00587 ;;genSkipc:3247: created from rifx:027A5DF4
                      00588 ;;; /home/sdcc-builder/build/sdcc-build/orig/sdcc/src/pic14/gen.c:2316:resultRemat *{*
                      00589 ;;; /home/sdcc-builder/build/sdcc-build/orig/sdcc/src/pic14/gen.c:2316:resultRemat *{*
                      00590 ;; ***  genPlus  611
                      00591 ;;; /home/sdcc-builder/build/sdcc-build/orig/sdcc/src/pic14/genarith.c:612:genPlus *{*
                      00592 ;;      694 register type nRegs=1
                      00593 ;;      694 register type nRegs=1
                      00594 ;;      line = 618 result AOP_REG=r0x1060, size=1, left AOP_REG=r0x1060, size=1, right AOP_LIT=0x01, siz
                            e=1
                      00595 ;;; /home/sdcc-builder/build/sdcc-build/orig/sdcc/src/pic14/genarith.c:142:genPlusIncr *{*
                      00596 ;; ***  genPlusIncr  144
                      00597 ;;      result AOP_REG, left AOP_REG, right AOP_LIT
                      00598 ;;      genPlusIncr  156
                      00599 ;; >>> /home/sdcc-builder/build/sdcc-build/orig/sdcc/src/pic14/genarith.c:168:genPlusIncr
                      00600 ;;      1109 rIdx = r0x1060 
                      00601         .line   207; "ssd.c"    period[0]++;
0053   0A??           00602         INCF    r0x101A,F
                      00603 ;;; /home/sdcc-builder/build/sdcc-build/orig/sdcc/src/pic14/gen.c:2316:resultRemat *{*
                      00604 ;;; /home/sdcc-builder/build/sdcc-build/orig/sdcc/src/pic14/gen.c:6686:genPointerSet *{*
                      00605 ;; ***  genPointerSet  6687
                      00606 ;;; /home/sdcc-builder/build/sdcc-build/orig/sdcc/src/pic14/gen.c:6505:genNearPointerSet *{*
                      00607 ;; ***  genNearPointerSet  6506
                      00608 ;;      613
                      00609 ;;      aopForRemat 392
                      00610 ;;      418: rname _period, val 0, const = 0
                      00611 ;;; /home/sdcc-builder/build/sdcc-build/orig/sdcc/src/pic14/gen.c:6443:genDataPointerSet *{*
                      00612 ;; ***  genDataPointerSet  6444
                      00613 ;;      694 register type nRegs=1
                      00614 ;;/home/sdcc-builder/build/sdcc-build/orig/sdcc/src/pic14/gen.c:6461: size=0, offset=0, AOP_TYPE(res)=8
                      00615 ;; >>> /home/sdcc-builder/build/sdcc-build/orig/sdcc/src/pic14/gen.c:6481:genDataPointerSet
                      00616 ;;      1109 rIdx = r0x1060 
0054   08??           00617         MOVF    r0x101A,W
                      00618 ;; >>> /home/sdcc-builder/build/sdcc-build/orig/sdcc/src/pic14/gen.c:6482:genDataPointerSet
                      00619 ;;      popGet AOP_PCODE (PO_IMMEDIATE + 0) 1130 _period
0055   ???? ????      00620         BANKSEL _period
0057   00??           00621         MOVWF   (_period + 0)
                      00622 ;;; /home/sdcc-builder/build/sdcc-build/orig/sdcc/src/pic14/gen.c:2316:resultRemat *{*
                      00623 ;;; /home/sdcc-builder/build/sdcc-build/orig/sdcc/src/pic14/gen.c:2778:genGoto *{*
gpasm-1.4.0 #1106 (Oct  6 2014) obj\Debug\ssd   1-13-2021  14:26:32         PAGE 13


LOC    OBJECT CODE    LINE  SOURCE TEXT
  VALUE

                      00624 ;; >>> /home/sdcc-builder/build/sdcc-build/orig/sdcc/src/pic14/gen.c:2780:genGoto
                      00625 ;; ***  popGetLabel  key=29, label offset 106
0058   2???           00626         GOTO    _00235_DS_
                      00627 ;;; /home/sdcc-builder/build/sdcc-build/orig/sdcc/src/pic14/gen.c:2316:resultRemat *{*
                      00628 ;;; /home/sdcc-builder/build/sdcc-build/orig/sdcc/src/pic14/gen.c:2760:genLabel *{*
                      00629 ;; ***  genLabel  2763
                      00630 ;;; /home/sdcc-builder/build/sdcc-build/orig/sdcc/src/pic14/gen.c:2316:resultRemat *{*
                      00631 ;;; /home/sdcc-builder/build/sdcc-build/orig/sdcc/src/pic14/gen.c:6686:genPointerSet *{*
                      00632 ;; ***  genPointerSet  6687
                      00633 ;;; /home/sdcc-builder/build/sdcc-build/orig/sdcc/src/pic14/gen.c:6505:genNearPointerSet *{*
                      00634 ;; ***  genNearPointerSet  6506
                      00635 ;;      613
                      00636 ;;      aopForRemat 392
                      00637 ;;      418: rname _period, val 0, const = 0
                      00638 ;;; /home/sdcc-builder/build/sdcc-build/orig/sdcc/src/pic14/gen.c:6443:genDataPointerSet *{*
                      00639 ;; ***  genDataPointerSet  6444
                      00640 ;;/home/sdcc-builder/build/sdcc-build/orig/sdcc/src/pic14/gen.c:6461: size=0, offset=0, AOP_TYPE(res)=8
                      00641 ;; >>> /home/sdcc-builder/build/sdcc-build/orig/sdcc/src/pic14/gen.c:6475:genDataPointerSet
                      00642 ;;      popGet AOP_PCODE (PO_IMMEDIATE + 0) 1130 _period
0059                  00643 _00211_DS_
                      00644         .line   210; "ssd.c"    period[0]=MIN_PERIOD;
0059   ???? ????      00645         BANKSEL _period
005B   01??           00646         CLRF    (_period + 0)
                      00647 ;;; /home/sdcc-builder/build/sdcc-build/orig/sdcc/src/pic14/gen.c:2316:resultRemat *{*
                      00648 ;;; /home/sdcc-builder/build/sdcc-build/orig/sdcc/src/pic14/gen.c:6686:genPointerSet *{*
                      00649 ;; ***  genPointerSet  6687
                      00650 ;;; /home/sdcc-builder/build/sdcc-build/orig/sdcc/src/pic14/gen.c:6505:genNearPointerSet *{*
                      00651 ;; ***  genNearPointerSet  6506
                      00652 ;;      613
                      00653 ;;      aopForRemat 392
                      00654 ;;      418: rname _toggle, val 0, const = 0
                      00655 ;;; /home/sdcc-builder/build/sdcc-build/orig/sdcc/src/pic14/gen.c:6443:genDataPointerSet *{*
                      00656 ;; ***  genDataPointerSet  6444
                      00657 ;;/home/sdcc-builder/build/sdcc-build/orig/sdcc/src/pic14/gen.c:6461: size=0, offset=0, AOP_TYPE(res)=8
                      00658 ;; >>> /home/sdcc-builder/build/sdcc-build/orig/sdcc/src/pic14/gen.c:6475:genDataPointerSet
                      00659 ;;      popGet AOP_PCODE (PO_IMMEDIATE + 0) 1130 _toggle
                      00660         .line   211; "ssd.c"    toggle[0]=TOGGLE_OFF;
005C   ???? ????      00661         BANKSEL _toggle
005E   01??           00662         CLRF    (_toggle + 0)
                      00663 ;;; /home/sdcc-builder/build/sdcc-build/orig/sdcc/src/pic14/gen.c:2316:resultRemat *{*
                      00664 ;;; /home/sdcc-builder/build/sdcc-build/orig/sdcc/src/pic14/gen.c:2778:genGoto *{*
                      00665 ;; >>> /home/sdcc-builder/build/sdcc-build/orig/sdcc/src/pic14/gen.c:2780:genGoto
                      00666 ;; ***  popGetLabel  key=29, label offset 106
005F   2???           00667         GOTO    _00235_DS_
                      00668 ;;; /home/sdcc-builder/build/sdcc-build/orig/sdcc/src/pic14/gen.c:2316:resultRemat *{*
                      00669 ;;; /home/sdcc-builder/build/sdcc-build/orig/sdcc/src/pic14/gen.c:2760:genLabel *{*
                      00670 ;; ***  genLabel  2763
                      00671 ;;; /home/sdcc-builder/build/sdcc-build/orig/sdcc/src/pic14/gen.c:2316:resultRemat *{*
                      00672 ;;; /home/sdcc-builder/build/sdcc-build/orig/sdcc/src/pic14/gen.c:3619:genCmpEq *{*
                      00673 ;; ***  genCmpEq  3620
                      00674 ;; ifx is null
                      00675 ;; ***  aopForSym 315
                      00676 ;;      327 sym->rname = _current_ssd, size = 1
gpasm-1.4.0 #1106 (Oct  6 2014) obj\Debug\ssd   1-13-2021  14:26:32         PAGE 14


LOC    OBJECT CODE    LINE  SOURCE TEXT
  VALUE

                      00677 ;;      694 register type nRegs=1
                      00678 ;;      694 register type nRegs=1
                      00679 ;;      line = 3631 result AOP_REG=r0x1060, size=1, left AOP_DIR=_current_ssd, size=1, right AOP_REG=r0x
                            1061, size=1
                      00680 ;; >>> /home/sdcc-builder/build/sdcc-build/orig/sdcc/src/pic14/gen.c:3657:genCmpEq
                      00681 ;;      1109 rIdx = r0x1060 
0060                  00682 _00228_DS_
                      00683         .line   213; "ssd.c"    }else if(current_ssd==secondSSD  && toggle[1]==TOGGLE_OFF){
0060   ???? ????      00684         BANKSEL r0x101A
0062   01??           00685         CLRF    r0x101A
                      00686 ;; ***  mov2w  1381  offset=0
                      00687 ;; >>> /home/sdcc-builder/build/sdcc-build/orig/sdcc/src/pic14/gen.c:1386:mov2w
                      00688 ;;      1109 rIdx = r0x1061 
0063   08??           00689         MOVF    r0x101B,W
                      00690 ;; >>> /home/sdcc-builder/build/sdcc-build/orig/sdcc/src/pic14/gen.c:3703:genCmpEq
                      00691 ;;      1009
                      00692 ;;      1028  _current_ssd   offset=0
0064   ???? ????      00693         BANKSEL _current_ssd
0066   06??           00694         XORWF   _current_ssd,W
0067   1D03           00695         BTFSS   STATUS,2
0068   2???           00696         GOTO    _00002_DS_
0069   ???? ????      00697         BANKSEL r0x101A
006B   0A??           00698         INCF    r0x101A,F
006C                  00699 _00002_DS_
006C   ???? ????      00700         BANKSEL r0x101A
006E   08??           00701         MOVF    r0x101A,W
006F   1903           00702         BTFSC   STATUS,2
                      00703 ;; >>> /home/sdcc-builder/build/sdcc-build/orig/sdcc/src/pic14/gen.c:6814:genIfx
                      00704 ;; ***  popGetLabel  key=18, label offset 106
0070   2???           00705         GOTO    _00224_DS_
                      00706 ;;; /home/sdcc-builder/build/sdcc-build/orig/sdcc/src/pic14/gen.c:2316:resultRemat *{*
                      00707 ;;; /home/sdcc-builder/build/sdcc-build/orig/sdcc/src/pic14/gen.c:2316:resultRemat *{*
                      00708 ;;; /home/sdcc-builder/build/sdcc-build/orig/sdcc/src/pic14/gen.c:2316:resultRemat *{*
                      00709 ;;; /home/sdcc-builder/build/sdcc-build/orig/sdcc/src/pic14/gen.c:6162:genPointerGet *{*
                      00710 ;; ***  genPointerGet  6163
                      00711 ;;; /home/sdcc-builder/build/sdcc-build/orig/sdcc/src/pic14/gen.c:5944:genNearPointerGet *{*
                      00712 ;; ***  genNearPointerGet  5945
                      00713 ;;      613
                      00714 ;;      aopForRemat 392
                      00715 ;;      418: rname _toggle, val 1, const = 0
                      00716 ;;; /home/sdcc-builder/build/sdcc-build/orig/sdcc/src/pic14/gen.c:5898:genDataPointerGet *{*
                      00717 ;; ***  genDataPointerGet  5899
                      00718 ;;      694 register type nRegs=1
                      00719 ;;      833: aopGet AOP_PCODE type PO_IMMEDIATE
                      00720 ;;      _toggle offset 1
                      00721 ;;      line = 5911 result AOP_REG=r0x1061, size=1, left AOP_PCODE=(_toggle+1), size=2, right -=-, size=
                            0
                      00722 ;; >>> /home/sdcc-builder/build/sdcc-build/orig/sdcc/src/pic14/gen.c:5922:genDataPointerGet
                      00723 ;;      popGet AOP_PCODE (PO_IMMEDIATE + 0) 1130 _toggle
0071   ???? ????      00724         BANKSEL _toggle
0073   08??           00725         MOVF    (_toggle + 1),W
0074   ???? ????      00726         BANKSEL r0x101B
0076   00??           00727         MOVWF   r0x101B
gpasm-1.4.0 #1106 (Oct  6 2014) obj\Debug\ssd   1-13-2021  14:26:32         PAGE 15


LOC    OBJECT CODE    LINE  SOURCE TEXT
  VALUE

0077   1D03           00728         BTFSS   STATUS,2
                      00729 ;; >>> /home/sdcc-builder/build/sdcc-build/orig/sdcc/src/pic14/gen.c:6809:genIfx
                      00730 ;; ***  popGetLabel  key=18, label offset 106
0078   2???           00731         GOTO    _00224_DS_
                      00732 ;;; /home/sdcc-builder/build/sdcc-build/orig/sdcc/src/pic14/gen.c:2316:resultRemat *{*
                      00733 ;;; /home/sdcc-builder/build/sdcc-build/orig/sdcc/src/pic14/gen.c:2316:resultRemat *{*
                      00734 ;;; /home/sdcc-builder/build/sdcc-build/orig/sdcc/src/pic14/gen.c:2316:resultRemat *{*
                      00735 ;;; /home/sdcc-builder/build/sdcc-build/orig/sdcc/src/pic14/gen.c:6162:genPointerGet *{*
                      00736 ;; ***  genPointerGet  6163
                      00737 ;;; /home/sdcc-builder/build/sdcc-build/orig/sdcc/src/pic14/gen.c:5944:genNearPointerGet *{*
                      00738 ;; ***  genNearPointerGet  5945
                      00739 ;;      613
                      00740 ;;      aopForRemat 392
                      00741 ;;      418: rname _period, val 1, const = 0
                      00742 ;;; /home/sdcc-builder/build/sdcc-build/orig/sdcc/src/pic14/gen.c:5898:genDataPointerGet *{*
                      00743 ;; ***  genDataPointerGet  5899
                      00744 ;;      694 register type nRegs=1
                      00745 ;;      833: aopGet AOP_PCODE type PO_IMMEDIATE
                      00746 ;;      _period offset 1
                      00747 ;;      line = 5911 result AOP_REG=r0x1061, size=1, left AOP_PCODE=(_period+1), size=2, right -=-, size=
                            0
                      00748 ;; >>> /home/sdcc-builder/build/sdcc-build/orig/sdcc/src/pic14/gen.c:5922:genDataPointerGet
                      00749 ;;      popGet AOP_PCODE (PO_IMMEDIATE + 0) 1130 _period
                      00750         .line   214; "ssd.c"    if(period[1]<MAX_PERIOD){
0079   ???? ????      00751         BANKSEL _period
007B   08??           00752         MOVF    (_period + 1),W
                      00753 ;; >>> /home/sdcc-builder/build/sdcc-build/orig/sdcc/src/pic14/gen.c:5923:genDataPointerGet
                      00754 ;;      1109 rIdx = r0x1061 
007C   ???? ????      00755         BANKSEL r0x101B
007E   00??           00756         MOVWF   r0x101B
                      00757 ;;; /home/sdcc-builder/build/sdcc-build/orig/sdcc/src/pic14/gen.c:2316:resultRemat *{*
                      00758 ;;; /home/sdcc-builder/build/sdcc-build/orig/sdcc/src/pic14/gen.c:3583:genCmpLt *{*
                      00759 ;; ***  genCmpLt  3584
                      00760 ;;      694 register type nRegs=1
                      00761 ;;; /home/sdcc-builder/build/sdcc-build/orig/sdcc/src/pic14/gen.c:3294:genCmp *{*
                      00762 ;;unsigned compare: left < lit(0xA=10), size=1
                      00763 ;; >>> /home/sdcc-builder/build/sdcc-build/orig/sdcc/src/pic14/gen.c:3265:pic14_mov2w_regOrLit
007F   300A           00764         MOVLW   0x0a
                      00765 ;; >>> /home/sdcc-builder/build/sdcc-build/orig/sdcc/src/pic14/gen.c:3432:genCmp
                      00766 ;;      1109 rIdx = r0x1061 
0080   02??           00767         SUBWF   r0x101B,W
                      00768 ;;; /home/sdcc-builder/build/sdcc-build/orig/sdcc/src/pic14/gen.c:3237:genSkipc *{*
                      00769 ;; >>> /home/sdcc-builder/build/sdcc-build/orig/sdcc/src/pic14/gen.c:3242:genSkipc
0081   1803           00770         BTFSC   STATUS,0
                      00771 ;; >>> /home/sdcc-builder/build/sdcc-build/orig/sdcc/src/pic14/gen.c:3246:genSkipc
                      00772 ;; ***  popGetLabel  key=8, label offset 106
0082   2???           00773         GOTO    _00214_DS_
                      00774 ;;genSkipc:3247: created from rifx:027A5DF4
                      00775 ;;; /home/sdcc-builder/build/sdcc-build/orig/sdcc/src/pic14/gen.c:2316:resultRemat *{*
                      00776 ;;; /home/sdcc-builder/build/sdcc-build/orig/sdcc/src/pic14/gen.c:2316:resultRemat *{*
                      00777 ;; ***  genPlus  611
                      00778 ;;; /home/sdcc-builder/build/sdcc-build/orig/sdcc/src/pic14/genarith.c:612:genPlus *{*
                      00779 ;;      694 register type nRegs=1
gpasm-1.4.0 #1106 (Oct  6 2014) obj\Debug\ssd   1-13-2021  14:26:32         PAGE 16


LOC    OBJECT CODE    LINE  SOURCE TEXT
  VALUE

                      00780 ;;      694 register type nRegs=1
                      00781 ;;      line = 618 result AOP_REG=r0x1061, size=1, left AOP_REG=r0x1061, size=1, right AOP_LIT=0x01, siz
                            e=1
                      00782 ;;; /home/sdcc-builder/build/sdcc-build/orig/sdcc/src/pic14/genarith.c:142:genPlusIncr *{*
                      00783 ;; ***  genPlusIncr  144
                      00784 ;;      result AOP_REG, left AOP_REG, right AOP_LIT
                      00785 ;;      genPlusIncr  156
                      00786 ;; >>> /home/sdcc-builder/build/sdcc-build/orig/sdcc/src/pic14/genarith.c:168:genPlusIncr
                      00787 ;;      1109 rIdx = r0x1061 
                      00788         .line   215; "ssd.c"    period[1]++;
0083   0A??           00789         INCF    r0x101B,F
                      00790 ;;; /home/sdcc-builder/build/sdcc-build/orig/sdcc/src/pic14/gen.c:2316:resultRemat *{*
                      00791 ;;; /home/sdcc-builder/build/sdcc-build/orig/sdcc/src/pic14/gen.c:6686:genPointerSet *{*
                      00792 ;; ***  genPointerSet  6687
                      00793 ;;; /home/sdcc-builder/build/sdcc-build/orig/sdcc/src/pic14/gen.c:6505:genNearPointerSet *{*
                      00794 ;; ***  genNearPointerSet  6506
                      00795 ;;      613
                      00796 ;;      aopForRemat 392
                      00797 ;;      418: rname _period, val 1, const = 0
                      00798 ;;; /home/sdcc-builder/build/sdcc-build/orig/sdcc/src/pic14/gen.c:6443:genDataPointerSet *{*
                      00799 ;; ***  genDataPointerSet  6444
                      00800 ;;      694 register type nRegs=1
                      00801 ;;/home/sdcc-builder/build/sdcc-build/orig/sdcc/src/pic14/gen.c:6461: size=0, offset=0, AOP_TYPE(res)=8
                      00802 ;; >>> /home/sdcc-builder/build/sdcc-build/orig/sdcc/src/pic14/gen.c:6481:genDataPointerSet
                      00803 ;;      1109 rIdx = r0x1061 
0084   08??           00804         MOVF    r0x101B,W
                      00805 ;; >>> /home/sdcc-builder/build/sdcc-build/orig/sdcc/src/pic14/gen.c:6482:genDataPointerSet
                      00806 ;;      popGet AOP_PCODE (PO_IMMEDIATE + 0) 1130 _period
0085   ???? ????      00807         BANKSEL _period
0087   00??           00808         MOVWF   (_period + 1)
                      00809 ;;; /home/sdcc-builder/build/sdcc-build/orig/sdcc/src/pic14/gen.c:2316:resultRemat *{*
                      00810 ;;; /home/sdcc-builder/build/sdcc-build/orig/sdcc/src/pic14/gen.c:2778:genGoto *{*
                      00811 ;; >>> /home/sdcc-builder/build/sdcc-build/orig/sdcc/src/pic14/gen.c:2780:genGoto
                      00812 ;; ***  popGetLabel  key=29, label offset 106
0088   2???           00813         GOTO    _00235_DS_
                      00814 ;;; /home/sdcc-builder/build/sdcc-build/orig/sdcc/src/pic14/gen.c:2316:resultRemat *{*
                      00815 ;;; /home/sdcc-builder/build/sdcc-build/orig/sdcc/src/pic14/gen.c:2760:genLabel *{*
                      00816 ;; ***  genLabel  2763
                      00817 ;;; /home/sdcc-builder/build/sdcc-build/orig/sdcc/src/pic14/gen.c:2316:resultRemat *{*
                      00818 ;;; /home/sdcc-builder/build/sdcc-build/orig/sdcc/src/pic14/gen.c:6686:genPointerSet *{*
                      00819 ;; ***  genPointerSet  6687
                      00820 ;;; /home/sdcc-builder/build/sdcc-build/orig/sdcc/src/pic14/gen.c:6505:genNearPointerSet *{*
                      00821 ;; ***  genNearPointerSet  6506
                      00822 ;;      613
                      00823 ;;      aopForRemat 392
                      00824 ;;      418: rname _period, val 1, const = 0
                      00825 ;;; /home/sdcc-builder/build/sdcc-build/orig/sdcc/src/pic14/gen.c:6443:genDataPointerSet *{*
                      00826 ;; ***  genDataPointerSet  6444
                      00827 ;;/home/sdcc-builder/build/sdcc-build/orig/sdcc/src/pic14/gen.c:6461: size=0, offset=0, AOP_TYPE(res)=8
                      00828 ;; >>> /home/sdcc-builder/build/sdcc-build/orig/sdcc/src/pic14/gen.c:6475:genDataPointerSet
                      00829 ;;      popGet AOP_PCODE (PO_IMMEDIATE + 0) 1130 _period
0089                  00830 _00214_DS_
                      00831         .line   218; "ssd.c"    period[1]=MIN_PERIOD;
gpasm-1.4.0 #1106 (Oct  6 2014) obj\Debug\ssd   1-13-2021  14:26:32         PAGE 17


LOC    OBJECT CODE    LINE  SOURCE TEXT
  VALUE

0089   ???? ????      00832         BANKSEL _period
008B   01??           00833         CLRF    (_period + 1)
                      00834 ;;; /home/sdcc-builder/build/sdcc-build/orig/sdcc/src/pic14/gen.c:2316:resultRemat *{*
                      00835 ;;; /home/sdcc-builder/build/sdcc-build/orig/sdcc/src/pic14/gen.c:6686:genPointerSet *{*
                      00836 ;; ***  genPointerSet  6687
                      00837 ;;; /home/sdcc-builder/build/sdcc-build/orig/sdcc/src/pic14/gen.c:6505:genNearPointerSet *{*
                      00838 ;; ***  genNearPointerSet  6506
                      00839 ;;      613
                      00840 ;;      aopForRemat 392
                      00841 ;;      418: rname _toggle, val 1, const = 0
                      00842 ;;; /home/sdcc-builder/build/sdcc-build/orig/sdcc/src/pic14/gen.c:6443:genDataPointerSet *{*
                      00843 ;; ***  genDataPointerSet  6444
                      00844 ;;/home/sdcc-builder/build/sdcc-build/orig/sdcc/src/pic14/gen.c:6461: size=0, offset=0, AOP_TYPE(res)=8
                      00845 ;; >>> /home/sdcc-builder/build/sdcc-build/orig/sdcc/src/pic14/gen.c:6470:genDataPointerSet
                      00846         .line   219; "ssd.c"    toggle[1]=TOGGLE_ON;
008C   3001           00847         MOVLW   0x01
                      00848 ;; >>> /home/sdcc-builder/build/sdcc-build/orig/sdcc/src/pic14/gen.c:6471:genDataPointerSet
                      00849 ;;      popGet AOP_PCODE (PO_IMMEDIATE + 0) 1130 _toggle
008D   ???? ????      00850         BANKSEL _toggle
008F   00??           00851         MOVWF   (_toggle + 1)
                      00852 ;;; /home/sdcc-builder/build/sdcc-build/orig/sdcc/src/pic14/gen.c:2316:resultRemat *{*
                      00853 ;;; /home/sdcc-builder/build/sdcc-build/orig/sdcc/src/pic14/gen.c:2778:genGoto *{*
                      00854 ;; >>> /home/sdcc-builder/build/sdcc-build/orig/sdcc/src/pic14/gen.c:2780:genGoto
                      00855 ;; ***  popGetLabel  key=29, label offset 106
0090   2???           00856         GOTO    _00235_DS_
                      00857 ;;; /home/sdcc-builder/build/sdcc-build/orig/sdcc/src/pic14/gen.c:2316:resultRemat *{*
                      00858 ;;; /home/sdcc-builder/build/sdcc-build/orig/sdcc/src/pic14/gen.c:2760:genLabel *{*
                      00859 ;; ***  genLabel  2763
                      00860 ;;; /home/sdcc-builder/build/sdcc-build/orig/sdcc/src/pic14/gen.c:2316:resultRemat *{*
                      00861 ;;; /home/sdcc-builder/build/sdcc-build/orig/sdcc/src/pic14/gen.c:6759:genIfx *{*
                      00862 ;; ***  genIfx  6760
                      00863 ;;      694 register type nRegs=1
                      00864 ;; ***  pic14_toBoolean  1515
                      00865 ;; >>> /home/sdcc-builder/build/sdcc-build/orig/sdcc/src/pic14/gen.c:1522:pic14_toBoolean
0091                  00866 _00224_DS_
                      00867         .line   221; "ssd.c"    }else if(current_ssd==secondSSD  && toggle[1]==TOGGLE_ON){
0091   3000           00868         MOVLW   0x00
                      00869 ;; >>> /home/sdcc-builder/build/sdcc-build/orig/sdcc/src/pic14/gen.c:1533:pic14_toBoolean
                      00870 ;;      1109 rIdx = r0x1060 
0092   ???? ????      00871         BANKSEL r0x101A
0094   04??           00872         IORWF   r0x101A,W
                      00873 ;; >>> /home/sdcc-builder/build/sdcc-build/orig/sdcc/src/pic14/gen.c:6813:genIfx
0095   1903           00874         BTFSC   STATUS,2
                      00875 ;; >>> /home/sdcc-builder/build/sdcc-build/orig/sdcc/src/pic14/gen.c:6814:genIfx
                      00876 ;; ***  popGetLabel  key=14, label offset 106
0096   2???           00877         GOTO    _00220_DS_
                      00878 ;;; /home/sdcc-builder/build/sdcc-build/orig/sdcc/src/pic14/gen.c:2316:resultRemat *{*
                      00879 ;;; /home/sdcc-builder/build/sdcc-build/orig/sdcc/src/pic14/gen.c:2316:resultRemat *{*
                      00880 ;;; /home/sdcc-builder/build/sdcc-build/orig/sdcc/src/pic14/gen.c:2316:resultRemat *{*
                      00881 ;;; /home/sdcc-builder/build/sdcc-build/orig/sdcc/src/pic14/gen.c:6162:genPointerGet *{*
                      00882 ;; ***  genPointerGet  6163
                      00883 ;;; /home/sdcc-builder/build/sdcc-build/orig/sdcc/src/pic14/gen.c:5944:genNearPointerGet *{*
                      00884 ;; ***  genNearPointerGet  5945
gpasm-1.4.0 #1106 (Oct  6 2014) obj\Debug\ssd   1-13-2021  14:26:32         PAGE 18


LOC    OBJECT CODE    LINE  SOURCE TEXT
  VALUE

                      00885 ;;      613
                      00886 ;;      aopForRemat 392
                      00887 ;;      418: rname _toggle, val 1, const = 0
                      00888 ;;; /home/sdcc-builder/build/sdcc-build/orig/sdcc/src/pic14/gen.c:5898:genDataPointerGet *{*
                      00889 ;; ***  genDataPointerGet  5899
                      00890 ;;      694 register type nRegs=1
                      00891 ;;      833: aopGet AOP_PCODE type PO_IMMEDIATE
                      00892 ;;      _toggle offset 1
                      00893 ;;      line = 5911 result AOP_REG=r0x1060, size=1, left AOP_PCODE=(_toggle+1), size=2, right -=-, size=
                            0
                      00894 ;; >>> /home/sdcc-builder/build/sdcc-build/orig/sdcc/src/pic14/gen.c:5922:genDataPointerGet
                      00895 ;;      popGet AOP_PCODE (PO_IMMEDIATE + 0) 1130 _toggle
0097   ???? ????      00896         BANKSEL _toggle
0099   08??           00897         MOVF    (_toggle + 1),W
009A   ???? ????      00898         BANKSEL r0x101A
009C   00??           00899         MOVWF   r0x101A
009D   3A01           00900         XORLW   0x01
                      00901 ;; >>> /home/sdcc-builder/build/sdcc-build/orig/sdcc/src/pic14/gen.c:3687:genCmpEq
009E   1D03           00902         BTFSS   STATUS,2
                      00903 ;; >>> /home/sdcc-builder/build/sdcc-build/orig/sdcc/src/pic14/gen.c:3690:genCmpEq
                      00904 ;; ***  popGetLabel  key=14, label offset 106
009F   2???           00905         GOTO    _00220_DS_
                      00906 ;;; /home/sdcc-builder/build/sdcc-build/orig/sdcc/src/pic14/gen.c:2316:resultRemat *{*
                      00907 ;;; /home/sdcc-builder/build/sdcc-build/orig/sdcc/src/pic14/gen.c:2316:resultRemat *{*
                      00908 ;;; /home/sdcc-builder/build/sdcc-build/orig/sdcc/src/pic14/gen.c:2316:resultRemat *{*
                      00909 ;;; /home/sdcc-builder/build/sdcc-build/orig/sdcc/src/pic14/gen.c:2316:resultRemat *{*
                      00910 ;;; /home/sdcc-builder/build/sdcc-build/orig/sdcc/src/pic14/gen.c:2086:genCall *{*
                      00911 ;; ***  genCall  2088
                      00912 ;;; /home/sdcc-builder/build/sdcc-build/orig/sdcc/src/pic14/gen.c:1801:saveRegisters *{*
                      00913 ;; ***  saveRegisters  1803
                      00914 ;; ***  aopForSym 315
                      00915 ;;      327 sym->rname = _current_ssd, size = 1
                      00916 ;;      2135 left AOP_LIT
                      00917 ;;; /home/sdcc-builder/build/sdcc-build/orig/sdcc/src/pic14/gen.c:1343:mov2w_op *{*
                      00918 ;; >>> /home/sdcc-builder/build/sdcc-build/orig/sdcc/src/pic14/gen.c:1361:mov2w_op
                      00919         .line   222; "ssd.c"    SSD_SetState(current_ssd, SSD_ON);
00A0   3001           00920         MOVLW   0x01
                      00921 ;; ***  aopForSym 315
                      00922 ;;      327 sym->rname = _current_ssd, size = 1
                      00923 ;;      2135 left AOP_DIR
                      00924 ;; >>> /home/sdcc-builder/build/sdcc-build/orig/sdcc/src/pic14/gen.c:2143:genCall
                      00925 ;; ***  popRegFromIdx,1042  , rIdx=0x7f
00A1   00??           00926         MOVWF   STK00
                      00927 ;;; /home/sdcc-builder/build/sdcc-build/orig/sdcc/src/pic14/gen.c:1343:mov2w_op *{*
                      00928 ;; ***  mov2w  1381  offset=0
                      00929 ;; >>> /home/sdcc-builder/build/sdcc-build/orig/sdcc/src/pic14/gen.c:1386:mov2w
                      00930 ;;      1009
                      00931 ;;      1028  _current_ssd   offset=0
00A2   ???? ????      00932         BANKSEL _current_ssd
00A4   08??           00933         MOVF    _current_ssd,W
                      00934 ;; >>> /home/sdcc-builder/build/sdcc-build/orig/sdcc/src/pic14/gen.c:2175:genCall
00A5   2???           00935         CALL    _SSD_SetState
                      00936 ;;; /home/sdcc-builder/build/sdcc-build/orig/sdcc/src/pic14/gen.c:1845:unsaveRegisters *{*
gpasm-1.4.0 #1106 (Oct  6 2014) obj\Debug\ssd   1-13-2021  14:26:32         PAGE 19


LOC    OBJECT CODE    LINE  SOURCE TEXT
  VALUE

                      00937 ;; ***  unsaveRegisters  1847
                      00938 ;;; /home/sdcc-builder/build/sdcc-build/orig/sdcc/src/pic14/gen.c:2316:resultRemat *{*
                      00939 ;;; /home/sdcc-builder/build/sdcc-build/orig/sdcc/src/pic14/gen.c:2316:resultRemat *{*
                      00940 ;;; /home/sdcc-builder/build/sdcc-build/orig/sdcc/src/pic14/gen.c:2316:resultRemat *{*
                      00941 ;;; /home/sdcc-builder/build/sdcc-build/orig/sdcc/src/pic14/gen.c:6162:genPointerGet *{*
                      00942 ;; ***  genPointerGet  6163
                      00943 ;;; /home/sdcc-builder/build/sdcc-build/orig/sdcc/src/pic14/gen.c:5944:genNearPointerGet *{*
                      00944 ;; ***  genNearPointerGet  5945
                      00945 ;;      613
                      00946 ;;      aopForRemat 392
                      00947 ;;      418: rname _period, val 1, const = 0
                      00948 ;;; /home/sdcc-builder/build/sdcc-build/orig/sdcc/src/pic14/gen.c:5898:genDataPointerGet *{*
                      00949 ;; ***  genDataPointerGet  5899
                      00950 ;;      694 register type nRegs=1
                      00951 ;;      833: aopGet AOP_PCODE type PO_IMMEDIATE
                      00952 ;;      _period offset 1
                      00953 ;;      line = 5911 result AOP_REG=r0x1060, size=1, left AOP_PCODE=(_period+1), size=2, right -=-, size=
                            0
                      00954 ;; >>> /home/sdcc-builder/build/sdcc-build/orig/sdcc/src/pic14/gen.c:5922:genDataPointerGet
                      00955 ;;      popGet AOP_PCODE (PO_IMMEDIATE + 0) 1130 _period
                      00956         .line   223; "ssd.c"    if(period[1]<MAX_PERIOD){
00A6   ???? ????      00957         BANKSEL _period
00A8   08??           00958         MOVF    (_period + 1),W
                      00959 ;; >>> /home/sdcc-builder/build/sdcc-build/orig/sdcc/src/pic14/gen.c:5923:genDataPointerGet
                      00960 ;;      1109 rIdx = r0x1060 
00A9   ???? ????      00961         BANKSEL r0x101A
00AB   00??           00962         MOVWF   r0x101A
                      00963 ;;; /home/sdcc-builder/build/sdcc-build/orig/sdcc/src/pic14/gen.c:2316:resultRemat *{*
                      00964 ;;; /home/sdcc-builder/build/sdcc-build/orig/sdcc/src/pic14/gen.c:3583:genCmpLt *{*
                      00965 ;; ***  genCmpLt  3584
                      00966 ;;      694 register type nRegs=1
                      00967 ;;; /home/sdcc-builder/build/sdcc-build/orig/sdcc/src/pic14/gen.c:3294:genCmp *{*
                      00968 ;;unsigned compare: left < lit(0xA=10), size=1
                      00969 ;; >>> /home/sdcc-builder/build/sdcc-build/orig/sdcc/src/pic14/gen.c:3265:pic14_mov2w_regOrLit
00AC   300A           00970         MOVLW   0x0a
                      00971 ;; >>> /home/sdcc-builder/build/sdcc-build/orig/sdcc/src/pic14/gen.c:3432:genCmp
                      00972 ;;      1109 rIdx = r0x1060 
00AD   02??           00973         SUBWF   r0x101A,W
                      00974 ;;; /home/sdcc-builder/build/sdcc-build/orig/sdcc/src/pic14/gen.c:3237:genSkipc *{*
                      00975 ;; >>> /home/sdcc-builder/build/sdcc-build/orig/sdcc/src/pic14/gen.c:3242:genSkipc
00AE   1803           00976         BTFSC   STATUS,0
                      00977 ;; >>> /home/sdcc-builder/build/sdcc-build/orig/sdcc/src/pic14/gen.c:3246:genSkipc
                      00978 ;; ***  popGetLabel  key=11, label offset 106
00AF   2???           00979         GOTO    _00217_DS_
                      00980 ;;genSkipc:3247: created from rifx:027A5DF4
                      00981 ;;; /home/sdcc-builder/build/sdcc-build/orig/sdcc/src/pic14/gen.c:2316:resultRemat *{*
                      00982 ;;; /home/sdcc-builder/build/sdcc-build/orig/sdcc/src/pic14/gen.c:2316:resultRemat *{*
                      00983 ;; ***  genPlus  611
                      00984 ;;; /home/sdcc-builder/build/sdcc-build/orig/sdcc/src/pic14/genarith.c:612:genPlus *{*
                      00985 ;;      694 register type nRegs=1
                      00986 ;;      694 register type nRegs=1
                      00987 ;;      line = 618 result AOP_REG=r0x1060, size=1, left AOP_REG=r0x1060, size=1, right AOP_LIT=0x01, siz
                            e=1
gpasm-1.4.0 #1106 (Oct  6 2014) obj\Debug\ssd   1-13-2021  14:26:32         PAGE 20


LOC    OBJECT CODE    LINE  SOURCE TEXT
  VALUE

                      00988 ;;; /home/sdcc-builder/build/sdcc-build/orig/sdcc/src/pic14/genarith.c:142:genPlusIncr *{*
                      00989 ;; ***  genPlusIncr  144
                      00990 ;;      result AOP_REG, left AOP_REG, right AOP_LIT
                      00991 ;;      genPlusIncr  156
                      00992 ;; >>> /home/sdcc-builder/build/sdcc-build/orig/sdcc/src/pic14/genarith.c:168:genPlusIncr
                      00993 ;;      1109 rIdx = r0x1060 
                      00994         .line   224; "ssd.c"    period[1]++;
00B0   0A??           00995         INCF    r0x101A,F
                      00996 ;;; /home/sdcc-builder/build/sdcc-build/orig/sdcc/src/pic14/gen.c:2316:resultRemat *{*
                      00997 ;;; /home/sdcc-builder/build/sdcc-build/orig/sdcc/src/pic14/gen.c:6686:genPointerSet *{*
                      00998 ;; ***  genPointerSet  6687
                      00999 ;;; /home/sdcc-builder/build/sdcc-build/orig/sdcc/src/pic14/gen.c:6505:genNearPointerSet *{*
                      01000 ;; ***  genNearPointerSet  6506
                      01001 ;;      613
                      01002 ;;      aopForRemat 392
                      01003 ;;      418: rname _period, val 1, const = 0
                      01004 ;;; /home/sdcc-builder/build/sdcc-build/orig/sdcc/src/pic14/gen.c:6443:genDataPointerSet *{*
                      01005 ;; ***  genDataPointerSet  6444
                      01006 ;;      694 register type nRegs=1
                      01007 ;;/home/sdcc-builder/build/sdcc-build/orig/sdcc/src/pic14/gen.c:6461: size=0, offset=0, AOP_TYPE(res)=8
                      01008 ;; >>> /home/sdcc-builder/build/sdcc-build/orig/sdcc/src/pic14/gen.c:6481:genDataPointerSet
                      01009 ;;      1109 rIdx = r0x1060 
00B1   08??           01010         MOVF    r0x101A,W
                      01011 ;; >>> /home/sdcc-builder/build/sdcc-build/orig/sdcc/src/pic14/gen.c:6482:genDataPointerSet
                      01012 ;;      popGet AOP_PCODE (PO_IMMEDIATE + 0) 1130 _period
00B2   ???? ????      01013         BANKSEL _period
00B4   00??           01014         MOVWF   (_period + 1)
                      01015 ;;; /home/sdcc-builder/build/sdcc-build/orig/sdcc/src/pic14/gen.c:2316:resultRemat *{*
                      01016 ;;; /home/sdcc-builder/build/sdcc-build/orig/sdcc/src/pic14/gen.c:2778:genGoto *{*
                      01017 ;; >>> /home/sdcc-builder/build/sdcc-build/orig/sdcc/src/pic14/gen.c:2780:genGoto
                      01018 ;; ***  popGetLabel  key=29, label offset 106
00B5   2???           01019         GOTO    _00235_DS_
                      01020 ;;; /home/sdcc-builder/build/sdcc-build/orig/sdcc/src/pic14/gen.c:2316:resultRemat *{*
                      01021 ;;; /home/sdcc-builder/build/sdcc-build/orig/sdcc/src/pic14/gen.c:2760:genLabel *{*
                      01022 ;; ***  genLabel  2763
                      01023 ;;; /home/sdcc-builder/build/sdcc-build/orig/sdcc/src/pic14/gen.c:2316:resultRemat *{*
                      01024 ;;; /home/sdcc-builder/build/sdcc-build/orig/sdcc/src/pic14/gen.c:6686:genPointerSet *{*
                      01025 ;; ***  genPointerSet  6687
                      01026 ;;; /home/sdcc-builder/build/sdcc-build/orig/sdcc/src/pic14/gen.c:6505:genNearPointerSet *{*
                      01027 ;; ***  genNearPointerSet  6506
                      01028 ;;      613
                      01029 ;;      aopForRemat 392
                      01030 ;;      418: rname _period, val 1, const = 0
                      01031 ;;; /home/sdcc-builder/build/sdcc-build/orig/sdcc/src/pic14/gen.c:6443:genDataPointerSet *{*
                      01032 ;; ***  genDataPointerSet  6444
                      01033 ;;/home/sdcc-builder/build/sdcc-build/orig/sdcc/src/pic14/gen.c:6461: size=0, offset=0, AOP_TYPE(res)=8
                      01034 ;; >>> /home/sdcc-builder/build/sdcc-build/orig/sdcc/src/pic14/gen.c:6475:genDataPointerSet
                      01035 ;;      popGet AOP_PCODE (PO_IMMEDIATE + 0) 1130 _period
00B6                  01036 _00217_DS_
                      01037         .line   227; "ssd.c"    period[1]=MIN_PERIOD;
00B6   ???? ????      01038         BANKSEL _period
00B8   01??           01039         CLRF    (_period + 1)
                      01040 ;;; /home/sdcc-builder/build/sdcc-build/orig/sdcc/src/pic14/gen.c:2316:resultRemat *{*
gpasm-1.4.0 #1106 (Oct  6 2014) obj\Debug\ssd   1-13-2021  14:26:32         PAGE 21


LOC    OBJECT CODE    LINE  SOURCE TEXT
  VALUE

                      01041 ;;; /home/sdcc-builder/build/sdcc-build/orig/sdcc/src/pic14/gen.c:6686:genPointerSet *{*
                      01042 ;; ***  genPointerSet  6687
                      01043 ;;; /home/sdcc-builder/build/sdcc-build/orig/sdcc/src/pic14/gen.c:6505:genNearPointerSet *{*
                      01044 ;; ***  genNearPointerSet  6506
                      01045 ;;      613
                      01046 ;;      aopForRemat 392
                      01047 ;;      418: rname _toggle, val 1, const = 0
                      01048 ;;; /home/sdcc-builder/build/sdcc-build/orig/sdcc/src/pic14/gen.c:6443:genDataPointerSet *{*
                      01049 ;; ***  genDataPointerSet  6444
                      01050 ;;/home/sdcc-builder/build/sdcc-build/orig/sdcc/src/pic14/gen.c:6461: size=0, offset=0, AOP_TYPE(res)=8
                      01051 ;; >>> /home/sdcc-builder/build/sdcc-build/orig/sdcc/src/pic14/gen.c:6475:genDataPointerSet
                      01052 ;;      popGet AOP_PCODE (PO_IMMEDIATE + 0) 1130 _toggle
                      01053         .line   228; "ssd.c"    toggle[1]=TOGGLE_OFF;
00B9   ???? ????      01054         BANKSEL _toggle
00BB   01??           01055         CLRF    (_toggle + 1)
                      01056 ;;; /home/sdcc-builder/build/sdcc-build/orig/sdcc/src/pic14/gen.c:2316:resultRemat *{*
                      01057 ;;; /home/sdcc-builder/build/sdcc-build/orig/sdcc/src/pic14/gen.c:2778:genGoto *{*
                      01058 ;; >>> /home/sdcc-builder/build/sdcc-build/orig/sdcc/src/pic14/gen.c:2780:genGoto
                      01059 ;; ***  popGetLabel  key=29, label offset 106
00BC   2???           01060         GOTO    _00235_DS_
                      01061 ;;; /home/sdcc-builder/build/sdcc-build/orig/sdcc/src/pic14/gen.c:2316:resultRemat *{*
                      01062 ;;; /home/sdcc-builder/build/sdcc-build/orig/sdcc/src/pic14/gen.c:2760:genLabel *{*
                      01063 ;; ***  genLabel  2763
                      01064 ;;; /home/sdcc-builder/build/sdcc-build/orig/sdcc/src/pic14/gen.c:2316:resultRemat *{*
                      01065 ;;; /home/sdcc-builder/build/sdcc-build/orig/sdcc/src/pic14/gen.c:2316:resultRemat *{*
                      01066 ;;; /home/sdcc-builder/build/sdcc-build/orig/sdcc/src/pic14/gen.c:2316:resultRemat *{*
                      01067 ;;; /home/sdcc-builder/build/sdcc-build/orig/sdcc/src/pic14/gen.c:2086:genCall *{*
                      01068 ;; ***  genCall  2088
                      01069 ;;; /home/sdcc-builder/build/sdcc-build/orig/sdcc/src/pic14/gen.c:1801:saveRegisters *{*
                      01070 ;; ***  saveRegisters  1803
                      01071 ;; ***  aopForSym 315
                      01072 ;;      327 sym->rname = _current_ssd, size = 1
                      01073 ;;      2135 left AOP_LIT
                      01074 ;;; /home/sdcc-builder/build/sdcc-build/orig/sdcc/src/pic14/gen.c:1343:mov2w_op *{*
                      01075 ;; >>> /home/sdcc-builder/build/sdcc-build/orig/sdcc/src/pic14/gen.c:1361:mov2w_op
00BD                  01076 _00220_DS_
                      01077         .line   232; "ssd.c"    SSD_SetState(current_ssd, SSD_ON);
00BD   3001           01078         MOVLW   0x01
                      01079 ;; ***  aopForSym 315
                      01080 ;;      327 sym->rname = _current_ssd, size = 1
                      01081 ;;      2135 left AOP_DIR
                      01082 ;; >>> /home/sdcc-builder/build/sdcc-build/orig/sdcc/src/pic14/gen.c:2143:genCall
                      01083 ;; ***  popRegFromIdx,1042  , rIdx=0x7f
00BE   00??           01084         MOVWF   STK00
                      01085 ;;; /home/sdcc-builder/build/sdcc-build/orig/sdcc/src/pic14/gen.c:1343:mov2w_op *{*
                      01086 ;; ***  mov2w  1381  offset=0
                      01087 ;; >>> /home/sdcc-builder/build/sdcc-build/orig/sdcc/src/pic14/gen.c:1386:mov2w
                      01088 ;;      1009
                      01089 ;;      1028  _current_ssd   offset=0
00BF   ???? ????      01090         BANKSEL _current_ssd
00C1   08??           01091         MOVF    _current_ssd,W
                      01092 ;; >>> /home/sdcc-builder/build/sdcc-build/orig/sdcc/src/pic14/gen.c:2175:genCall
00C2   2???           01093         CALL    _SSD_SetState
gpasm-1.4.0 #1106 (Oct  6 2014) obj\Debug\ssd   1-13-2021  14:26:32         PAGE 22


LOC    OBJECT CODE    LINE  SOURCE TEXT
  VALUE

                      01094 ;;; /home/sdcc-builder/build/sdcc-build/orig/sdcc/src/pic14/gen.c:1845:unsaveRegisters *{*
                      01095 ;; ***  unsaveRegisters  1847
                      01096 ;;; /home/sdcc-builder/build/sdcc-build/orig/sdcc/src/pic14/gen.c:2316:resultRemat *{*
                      01097 ;;; /home/sdcc-builder/build/sdcc-build/orig/sdcc/src/pic14/gen.c:2760:genLabel *{*
                      01098 ;; ***  genLabel  2763
                      01099 ;;; /home/sdcc-builder/build/sdcc-build/orig/sdcc/src/pic14/gen.c:2316:resultRemat *{*
                      01100 ;;; /home/sdcc-builder/build/sdcc-build/orig/sdcc/src/pic14/gen.c:2528:genEndFunction *{*
                      01101 ;; ***  genEndFunction  2530
00C3                  01102 _00235_DS_
00C3   0008           01103         RETURN  
                      01104 ; exit point of _SSD_DisplayToggle
                      01105 
                      01106 ;***
                      01107 ;  pBlock Stats: dbName = C
                      01108 ;***
                      01109 ;entry:  _SSD_GetState  ;Function start
                      01110 ; 2 exit points
                      01111 ;has an exit
                      01112 ;2 compiler assigned registers:
                      01113 ;   r0x101D
                      01114 ;   r0x101E
                      01115 ;; Starting pCode block
                      01116 ;;; /home/sdcc-builder/build/sdcc-build/orig/sdcc/src/pic14/gen.c:2316:resultRemat *{*
                      01117 ;;; /home/sdcc-builder/build/sdcc-build/orig/sdcc/src/pic14/gen.c:2760:genLabel *{*
                      01118 ;; ***  genLabel  2763
                      01119 ;;; /home/sdcc-builder/build/sdcc-build/orig/sdcc/src/pic14/gen.c:2316:resultRemat *{*
                      01120 ;;; /home/sdcc-builder/build/sdcc-build/orig/sdcc/src/pic14/gen.c:2340:genFunction *{*
                      01121 ;; ***  genFunction  2342 curr label offset=85previous max_key=0 
00C4                  01122 _SSD_GetState   ;Function start
                      01123 ; 2 exit points
                      01124 ;;; /home/sdcc-builder/build/sdcc-build/orig/sdcc/src/pic14/gen.c:2316:resultRemat *{*
                      01125 ;;; /home/sdcc-builder/build/sdcc-build/orig/sdcc/src/pic14/gen.c:7358:genReceive *{*
                      01126 ;; ***  genReceive  7359
                      01127 ;;      694 register type nRegs=1
                      01128 ;;; /home/sdcc-builder/build/sdcc-build/orig/sdcc/src/pic14/gen.c:1907:assignResultValue *{*
                      01129 ;; ***  assignResultValue  1909
                      01130 ;;      line = 1911 result -=-, size=0, left AOP_REG=r0x105E, size=1, right -=-, size=0
                      01131 ;; >>> /home/sdcc-builder/build/sdcc-build/orig/sdcc/src/pic14/gen.c:1393:movwf
                      01132 ;;      1109 rIdx = r0x105E 
                      01133         .line   168; "ssd.c"    tSSD_State SSD_GetState(tSSD ssd)
00C4   ???? ????      01134         BANKSEL r0x101D
00C6   00??           01135         MOVWF   r0x101D
                      01136 ;;; /home/sdcc-builder/build/sdcc-build/orig/sdcc/src/pic14/gen.c:2316:resultRemat *{*
                      01137 ;;; /home/sdcc-builder/build/sdcc-build/orig/sdcc/src/pic14/gen.c:6927:genAssign *{*
                      01138 ;; ***  genAssign  6928
                      01139 ;;      694 register type nRegs=1
                      01140 ;;      line = 6937 result AOP_REG=r0x105F, size=1, left -=-, size=0, right AOP_LIT=0x00, size=1
                      01141 ;; ***  genAssign  7023
                      01142 ;; >>> /home/sdcc-builder/build/sdcc-build/orig/sdcc/src/pic14/gen.c:7035:genAssign
                      01143 ;;      1109 rIdx = r0x105F 
                      01144         .line   170; "ssd.c"    tSSD_State ret = SSD_OFF;
00C7   01??           01145         CLRF    r0x101E
                      01146 ;;; /home/sdcc-builder/build/sdcc-build/orig/sdcc/src/pic14/gen.c:2316:resultRemat *{*
gpasm-1.4.0 #1106 (Oct  6 2014) obj\Debug\ssd   1-13-2021  14:26:32         PAGE 23


LOC    OBJECT CODE    LINE  SOURCE TEXT
  VALUE

                      01147 ;;; /home/sdcc-builder/build/sdcc-build/orig/sdcc/src/pic14/gen.c:3547:genCmpGt *{*
                      01148 ;; ***  genCmpGt  3548
                      01149 ;;      694 register type nRegs=1
                      01150 ;;; /home/sdcc-builder/build/sdcc-build/orig/sdcc/src/pic14/gen.c:3294:genCmp *{*
                      01151 ;;swapping arguments (AOP_TYPEs 1/2)
                      01152 ;;unsigned compare: left >= lit(0x4=4), size=1
                      01153 ;; >>> /home/sdcc-builder/build/sdcc-build/orig/sdcc/src/pic14/gen.c:3265:pic14_mov2w_regOrLit
                      01154         .line   172; "ssd.c"    switch(ssd)
00C8   3004           01155         MOVLW   0x04
                      01156 ;; >>> /home/sdcc-builder/build/sdcc-build/orig/sdcc/src/pic14/gen.c:3432:genCmp
                      01157 ;;      1109 rIdx = r0x105E 
00C9   02??           01158         SUBWF   r0x101D,W
                      01159 ;;; /home/sdcc-builder/build/sdcc-build/orig/sdcc/src/pic14/gen.c:3237:genSkipc *{*
                      01160 ;; >>> /home/sdcc-builder/build/sdcc-build/orig/sdcc/src/pic14/gen.c:3242:genSkipc
00CA   1803           01161         BTFSC   STATUS,0
                      01162 ;; >>> /home/sdcc-builder/build/sdcc-build/orig/sdcc/src/pic14/gen.c:3246:genSkipc
                      01163 ;; ***  popGetLabel  key=6, label offset 89
00CB   2???           01164         GOTO    _00195_DS_
                      01165 ;;genSkipc:3247: created from rifx:027A5DF4
                      01166 ;;; /home/sdcc-builder/build/sdcc-build/orig/sdcc/src/pic14/gen.c:2316:resultRemat *{*
                      01167 ;;; /home/sdcc-builder/build/sdcc-build/orig/sdcc/src/pic14/gen.c:2316:resultRemat *{*
                      01168 ;;; /home/sdcc-builder/build/sdcc-build/orig/sdcc/src/pic14/gen.c:7071:genJumpTab *{*
                      01169 ;; ***  genJumpTab  7072
                      01170 ;;      694 register type nRegs=1
                      01171 ;; >>> /home/sdcc-builder/build/sdcc-build/orig/sdcc/src/pic14/gen.c:7087:genJumpTab
                      01172 ;; ***  popGetLabel  key=13, label offset 89
00CC   30??           01173         MOVLW   HIGH(_00202_DS_)
                      01174 ;; >>> /home/sdcc-builder/build/sdcc-build/orig/sdcc/src/pic14/gen.c:7088:genJumpTab
00CD   1283 1303      01175         BANKSEL PCLATH
00CF   008A           01176         MOVWF   PCLATH
                      01177 ;; >>> /home/sdcc-builder/build/sdcc-build/orig/sdcc/src/pic14/gen.c:7089:genJumpTab
                      01178 ;; ***  popGetLabel  key=13, label offset 89
00D0   30??           01179         MOVLW   _00202_DS_
                      01180 ;; >>> /home/sdcc-builder/build/sdcc-build/orig/sdcc/src/pic14/gen.c:7090:genJumpTab
                      01181 ;;      1109 rIdx = r0x105E 
00D1   ???? ????      01182         BANKSEL r0x101D
00D3   07??           01183         ADDWF   r0x101D,W
                      01184 ;; >>> /home/sdcc-builder/build/sdcc-build/orig/sdcc/src/pic14/gen.c:7091:genJumpTab
00D4   1C03           01185         BTFSS   STATUS,0
00D5   2???           01186         GOTO    _00003_DS_
                      01187 ;; >>> /home/sdcc-builder/build/sdcc-build/orig/sdcc/src/pic14/gen.c:7092:genJumpTab
00D6   1283 1303      01188         BANKSEL PCLATH
00D8   0A8A           01189         INCF    PCLATH,F
                      01190 ;; >>> /home/sdcc-builder/build/sdcc-build/orig/sdcc/src/pic14/gen.c:7093:genJumpTab
00D9                  01191 _00003_DS_
00D9   0082           01192         MOVWF   PCL
                      01193 ;; >>> /home/sdcc-builder/build/sdcc-build/orig/sdcc/src/pic14/gen.c:7102:genJumpTab
                      01194 ;; ***  popGetLabel  key=1, label offset 89
00DA                  01195 _00202_DS_
00DA   2???           01196         GOTO    _00190_DS_
                      01197 ;; >>> /home/sdcc-builder/build/sdcc-build/orig/sdcc/src/pic14/gen.c:7102:genJumpTab
                      01198 ;; ***  popGetLabel  key=2, label offset 89
00DB   2???           01199         GOTO    _00191_DS_
gpasm-1.4.0 #1106 (Oct  6 2014) obj\Debug\ssd   1-13-2021  14:26:32         PAGE 24


LOC    OBJECT CODE    LINE  SOURCE TEXT
  VALUE

                      01200 ;; >>> /home/sdcc-builder/build/sdcc-build/orig/sdcc/src/pic14/gen.c:7102:genJumpTab
                      01201 ;; ***  popGetLabel  key=3, label offset 89
00DC   2???           01202         GOTO    _00192_DS_
                      01203 ;; >>> /home/sdcc-builder/build/sdcc-build/orig/sdcc/src/pic14/gen.c:7102:genJumpTab
                      01204 ;; ***  popGetLabel  key=4, label offset 89
00DD   2???           01205         GOTO    _00193_DS_
                      01206 ;;; /home/sdcc-builder/build/sdcc-build/orig/sdcc/src/pic14/gen.c:2316:resultRemat *{*
                      01207 ;;; /home/sdcc-builder/build/sdcc-build/orig/sdcc/src/pic14/gen.c:2760:genLabel *{*
                      01208 ;; ***  genLabel  2763
                      01209 ;;; /home/sdcc-builder/build/sdcc-build/orig/sdcc/src/pic14/gen.c:2316:resultRemat *{*
                      01210 ;;; /home/sdcc-builder/build/sdcc-build/orig/sdcc/src/pic14/gen.c:3919:genAnd *{*
                      01211 ;; ***  genAnd  3920
                      01212 ;; ***  aopForSym 315
                      01213 ;;      327 sym->rname = _PORTB, size = 1
                      01214 ;;      694 register type nRegs=1
                      01215 ;;      line = 3955 result AOP_REG=r0x105E, size=1, left AOP_DIR=_PORTB, size=1, right AOP_LIT=0x80, siz
                            e=1
                      01216 ;; >>> /home/sdcc-builder/build/sdcc-build/orig/sdcc/src/pic14/gen.c:4190:genAnd
00DE                  01217 _00190_DS_
                      01218         .line   175; "ssd.c"    ret = GPIO_ReadPortPin(GPIO_PORTB_DATA, SSD_1_PIN);
00DE   3080           01219         MOVLW   0x80
                      01220 ;; >>> /home/sdcc-builder/build/sdcc-build/orig/sdcc/src/pic14/gen.c:4191:genAnd
                      01221 ;;      1009
                      01222 ;;      1028  _PORTB   offset=0
00DF   ???? ????      01223         BANKSEL _PORTB
00E1   05??           01224         ANDWF   _PORTB,W
                      01225 ;; >>> /home/sdcc-builder/build/sdcc-build/orig/sdcc/src/pic14/gen.c:4192:genAnd
                      01226 ;;      1109 rIdx = r0x105E 
00E2   ???? ????      01227         BANKSEL r0x101D
00E4   00??           01228         MOVWF   r0x101D
                      01229 ;;; /home/sdcc-builder/build/sdcc-build/orig/sdcc/src/pic14/gen.c:2316:resultRemat *{*
                      01230 ;;; /home/sdcc-builder/build/sdcc-build/orig/sdcc/src/pic14/gen.c:5418:genGenericShift *{*
                      01231 ;; ***  genGenericShift  5421
                      01232 ;;      694 register type nRegs=1
                      01233 ;;      694 register type nRegs=1
                      01234 ;; >>> /home/sdcc-builder/build/sdcc-build/orig/sdcc/src/pic14/gen.c:5329:shiftRight_Left2ResultLit
                      01235 ;;      1109 rIdx = r0x105E 
00E5   0D??           01236         RLF     r0x101D,W
                      01237 ;; >>> /home/sdcc-builder/build/sdcc-build/orig/sdcc/src/pic14/gen.c:5335:shiftRight_Left2ResultLit
                      01238 ;;      1109 rIdx = r0x105F 
00E6   01??           01239         CLRF    r0x101E
                      01240 ;; >>> /home/sdcc-builder/build/sdcc-build/orig/sdcc/src/pic14/gen.c:5338:shiftRight_Left2ResultLit
                      01241 ;;      1109 rIdx = r0x105F 
00E7   0D??           01242         RLF     r0x101E,F
                      01243 ;; ***  addSign  861
                      01244 ;;; /home/sdcc-builder/build/sdcc-build/orig/sdcc/src/pic14/genarith.c:862:addSign *{*
                      01245 ;;; /home/sdcc-builder/build/sdcc-build/orig/sdcc/src/pic14/gen.c:2316:resultRemat *{*
                      01246 ;;; /home/sdcc-builder/build/sdcc-build/orig/sdcc/src/pic14/gen.c:2778:genGoto *{*
                      01247 ;; >>> /home/sdcc-builder/build/sdcc-build/orig/sdcc/src/pic14/gen.c:2780:genGoto
                      01248 ;; ***  popGetLabel  key=6, label offset 89
                      01249         .line   176; "ssd.c"    break;
00E8   2???           01250         GOTO    _00195_DS_
                      01251 ;;; /home/sdcc-builder/build/sdcc-build/orig/sdcc/src/pic14/gen.c:2316:resultRemat *{*
gpasm-1.4.0 #1106 (Oct  6 2014) obj\Debug\ssd   1-13-2021  14:26:32         PAGE 25


LOC    OBJECT CODE    LINE  SOURCE TEXT
  VALUE

                      01252 ;;; /home/sdcc-builder/build/sdcc-build/orig/sdcc/src/pic14/gen.c:2760:genLabel *{*
                      01253 ;; ***  genLabel  2763
                      01254 ;;; /home/sdcc-builder/build/sdcc-build/orig/sdcc/src/pic14/gen.c:2316:resultRemat *{*
                      01255 ;;; /home/sdcc-builder/build/sdcc-build/orig/sdcc/src/pic14/gen.c:3919:genAnd *{*
                      01256 ;; ***  genAnd  3920
                      01257 ;; ***  aopForSym 315
                      01258 ;;      327 sym->rname = _PORTB, size = 1
                      01259 ;;      694 register type nRegs=1
                      01260 ;;      line = 3955 result AOP_REG=r0x105E, size=1, left AOP_DIR=_PORTB, size=1, right AOP_LIT=0x40, siz
                            e=1
                      01261 ;; >>> /home/sdcc-builder/build/sdcc-build/orig/sdcc/src/pic14/gen.c:4190:genAnd
00E9                  01262 _00191_DS_
                      01263         .line   178; "ssd.c"    ret = GPIO_ReadPortPin(GPIO_PORTB_DATA, SSD_2_PIN);
00E9   3040           01264         MOVLW   0x40
                      01265 ;; >>> /home/sdcc-builder/build/sdcc-build/orig/sdcc/src/pic14/gen.c:4191:genAnd
                      01266 ;;      1009
                      01267 ;;      1028  _PORTB   offset=0
00EA   ???? ????      01268         BANKSEL _PORTB
00EC   05??           01269         ANDWF   _PORTB,W
                      01270 ;; >>> /home/sdcc-builder/build/sdcc-build/orig/sdcc/src/pic14/gen.c:4192:genAnd
                      01271 ;;      1109 rIdx = r0x105E 
00ED   ???? ????      01272         BANKSEL r0x101D
00EF   00??           01273         MOVWF   r0x101D
                      01274 ;;; /home/sdcc-builder/build/sdcc-build/orig/sdcc/src/pic14/gen.c:2316:resultRemat *{*
                      01275 ;;; /home/sdcc-builder/build/sdcc-build/orig/sdcc/src/pic14/gen.c:5418:genGenericShift *{*
                      01276 ;; ***  genGenericShift  5421
                      01277 ;;      694 register type nRegs=1
                      01278 ;;      575
                      01279 ;; >>> /home/sdcc-builder/build/sdcc-build/orig/sdcc/src/pic14/gen.c:5306:shiftRight_Left2ResultLit
                      01280 ;;      1109 rIdx = r0x105E 
00F0   0E??           01281         SWAPF   r0x101D,W
                      01282 ;; >>> /home/sdcc-builder/build/sdcc-build/orig/sdcc/src/pic14/gen.c:5307:shiftRight_Left2ResultLit
00F1   390F           01283         ANDLW   0x0f
                      01284 ;; >>> /home/sdcc-builder/build/sdcc-build/orig/sdcc/src/pic14/gen.c:5308:shiftRight_Left2ResultLit
                      01285 ;;      1109 rIdx = r0x105F 
00F2   00??           01286         MOVWF   r0x101E
                      01287 ;; ***  addSign  861
                      01288 ;;; /home/sdcc-builder/build/sdcc-build/orig/sdcc/src/pic14/genarith.c:862:addSign *{*
                      01289 ;;shiftRight_Left2ResultLit:5273: shCount=1, size=1, sign=0, same=1, offr=0
                      01290 ;; >>> /home/sdcc-builder/build/sdcc-build/orig/sdcc/src/pic14/gen.c:5283:shiftRight_Left2ResultLit
00F3   1003           01291         BCF     STATUS,0
                      01292 ;; >>> /home/sdcc-builder/build/sdcc-build/orig/sdcc/src/pic14/gen.c:5293:shiftRight_Left2ResultLit
                      01293 ;;      1109 rIdx = r0x105F 
00F4   0C??           01294         RRF     r0x101E,F
                      01295 ;; ***  addSign  861
                      01296 ;;; /home/sdcc-builder/build/sdcc-build/orig/sdcc/src/pic14/genarith.c:862:addSign *{*
                      01297 ;;shiftRight_Left2ResultLit:5273: shCount=1, size=1, sign=0, same=1, offr=0
                      01298 ;; >>> /home/sdcc-builder/build/sdcc-build/orig/sdcc/src/pic14/gen.c:5283:shiftRight_Left2ResultLit
00F5   1003           01299         BCF     STATUS,0
                      01300 ;; >>> /home/sdcc-builder/build/sdcc-build/orig/sdcc/src/pic14/gen.c:5293:shiftRight_Left2ResultLit
                      01301 ;;      1109 rIdx = r0x105F 
00F6   0C??           01302         RRF     r0x101E,F
                      01303 ;; ***  addSign  861
gpasm-1.4.0 #1106 (Oct  6 2014) obj\Debug\ssd   1-13-2021  14:26:32         PAGE 26


LOC    OBJECT CODE    LINE  SOURCE TEXT
  VALUE

                      01304 ;;; /home/sdcc-builder/build/sdcc-build/orig/sdcc/src/pic14/genarith.c:862:addSign *{*
                      01305 ;;; /home/sdcc-builder/build/sdcc-build/orig/sdcc/src/pic14/gen.c:2316:resultRemat *{*
                      01306 ;;; /home/sdcc-builder/build/sdcc-build/orig/sdcc/src/pic14/gen.c:2778:genGoto *{*
                      01307 ;; >>> /home/sdcc-builder/build/sdcc-build/orig/sdcc/src/pic14/gen.c:2780:genGoto
                      01308 ;; ***  popGetLabel  key=6, label offset 89
                      01309         .line   179; "ssd.c"    break;
00F7   2???           01310         GOTO    _00195_DS_
                      01311 ;;; /home/sdcc-builder/build/sdcc-build/orig/sdcc/src/pic14/gen.c:2316:resultRemat *{*
                      01312 ;;; /home/sdcc-builder/build/sdcc-build/orig/sdcc/src/pic14/gen.c:2760:genLabel *{*
                      01313 ;; ***  genLabel  2763
                      01314 ;;; /home/sdcc-builder/build/sdcc-build/orig/sdcc/src/pic14/gen.c:2316:resultRemat *{*
                      01315 ;;; /home/sdcc-builder/build/sdcc-build/orig/sdcc/src/pic14/gen.c:3919:genAnd *{*
                      01316 ;; ***  genAnd  3920
                      01317 ;; ***  aopForSym 315
                      01318 ;;      327 sym->rname = _PORTB, size = 1
                      01319 ;;      694 register type nRegs=1
                      01320 ;;      line = 3955 result AOP_REG=r0x105E, size=1, left AOP_DIR=_PORTB, size=1, right AOP_LIT=0x20, siz
                            e=1
                      01321 ;; >>> /home/sdcc-builder/build/sdcc-build/orig/sdcc/src/pic14/gen.c:4190:genAnd
00F8                  01322 _00192_DS_
                      01323         .line   181; "ssd.c"    ret = GPIO_ReadPortPin(GPIO_PORTB_DATA, SSD_3_PIN);
00F8   3020           01324         MOVLW   0x20
                      01325 ;; >>> /home/sdcc-builder/build/sdcc-build/orig/sdcc/src/pic14/gen.c:4191:genAnd
                      01326 ;;      1009
                      01327 ;;      1028  _PORTB   offset=0
00F9   ???? ????      01328         BANKSEL _PORTB
00FB   05??           01329         ANDWF   _PORTB,W
                      01330 ;; >>> /home/sdcc-builder/build/sdcc-build/orig/sdcc/src/pic14/gen.c:4192:genAnd
                      01331 ;;      1109 rIdx = r0x105E 
00FC   ???? ????      01332         BANKSEL r0x101D
00FE   00??           01333         MOVWF   r0x101D
                      01334 ;;; /home/sdcc-builder/build/sdcc-build/orig/sdcc/src/pic14/gen.c:2316:resultRemat *{*
                      01335 ;;; /home/sdcc-builder/build/sdcc-build/orig/sdcc/src/pic14/gen.c:5418:genGenericShift *{*
                      01336 ;; ***  genGenericShift  5421
                      01337 ;;      694 register type nRegs=1
                      01338 ;;      575
                      01339 ;; >>> /home/sdcc-builder/build/sdcc-build/orig/sdcc/src/pic14/gen.c:5306:shiftRight_Left2ResultLit
                      01340 ;;      1109 rIdx = r0x105E 
00FF   0E??           01341         SWAPF   r0x101D,W
                      01342 ;; >>> /home/sdcc-builder/build/sdcc-build/orig/sdcc/src/pic14/gen.c:5307:shiftRight_Left2ResultLit
0100   390F           01343         ANDLW   0x0f
                      01344 ;; >>> /home/sdcc-builder/build/sdcc-build/orig/sdcc/src/pic14/gen.c:5308:shiftRight_Left2ResultLit
                      01345 ;;      1109 rIdx = r0x105F 
0101   00??           01346         MOVWF   r0x101E
                      01347 ;; ***  addSign  861
                      01348 ;;; /home/sdcc-builder/build/sdcc-build/orig/sdcc/src/pic14/genarith.c:862:addSign *{*
                      01349 ;;shiftRight_Left2ResultLit:5273: shCount=1, size=1, sign=0, same=1, offr=0
                      01350 ;; >>> /home/sdcc-builder/build/sdcc-build/orig/sdcc/src/pic14/gen.c:5283:shiftRight_Left2ResultLit
0102   1003           01351         BCF     STATUS,0
                      01352 ;; >>> /home/sdcc-builder/build/sdcc-build/orig/sdcc/src/pic14/gen.c:5293:shiftRight_Left2ResultLit
                      01353 ;;      1109 rIdx = r0x105F 
0103   0C??           01354         RRF     r0x101E,F
                      01355 ;; ***  addSign  861
gpasm-1.4.0 #1106 (Oct  6 2014) obj\Debug\ssd   1-13-2021  14:26:32         PAGE 27


LOC    OBJECT CODE    LINE  SOURCE TEXT
  VALUE

                      01356 ;;; /home/sdcc-builder/build/sdcc-build/orig/sdcc/src/pic14/genarith.c:862:addSign *{*
                      01357 ;;; /home/sdcc-builder/build/sdcc-build/orig/sdcc/src/pic14/gen.c:2316:resultRemat *{*
                      01358 ;;; /home/sdcc-builder/build/sdcc-build/orig/sdcc/src/pic14/gen.c:2778:genGoto *{*
                      01359 ;; >>> /home/sdcc-builder/build/sdcc-build/orig/sdcc/src/pic14/gen.c:2780:genGoto
                      01360 ;; ***  popGetLabel  key=6, label offset 89
                      01361         .line   182; "ssd.c"    break;
0104   2???           01362         GOTO    _00195_DS_
                      01363 ;;; /home/sdcc-builder/build/sdcc-build/orig/sdcc/src/pic14/gen.c:2316:resultRemat *{*
                      01364 ;;; /home/sdcc-builder/build/sdcc-build/orig/sdcc/src/pic14/gen.c:2760:genLabel *{*
                      01365 ;; ***  genLabel  2763
                      01366 ;;; /home/sdcc-builder/build/sdcc-build/orig/sdcc/src/pic14/gen.c:2316:resultRemat *{*
                      01367 ;;; /home/sdcc-builder/build/sdcc-build/orig/sdcc/src/pic14/gen.c:3919:genAnd *{*
                      01368 ;; ***  genAnd  3920
                      01369 ;; ***  aopForSym 315
                      01370 ;;      327 sym->rname = _PORTB, size = 1
                      01371 ;;      694 register type nRegs=1
                      01372 ;;      line = 3955 result AOP_REG=r0x105E, size=1, left AOP_DIR=_PORTB, size=1, right AOP_LIT=0x10, siz
                            e=1
                      01373 ;; >>> /home/sdcc-builder/build/sdcc-build/orig/sdcc/src/pic14/gen.c:4190:genAnd
0105                  01374 _00193_DS_
                      01375         .line   184; "ssd.c"    ret = GPIO_ReadPortPin(GPIO_PORTB_DATA, SSD_4_PIN);
0105   3010           01376         MOVLW   0x10
                      01377 ;; >>> /home/sdcc-builder/build/sdcc-build/orig/sdcc/src/pic14/gen.c:4191:genAnd
                      01378 ;;      1009
                      01379 ;;      1028  _PORTB   offset=0
0106   ???? ????      01380         BANKSEL _PORTB
0108   05??           01381         ANDWF   _PORTB,W
                      01382 ;; >>> /home/sdcc-builder/build/sdcc-build/orig/sdcc/src/pic14/gen.c:4192:genAnd
                      01383 ;;      1109 rIdx = r0x105E 
0109   ???? ????      01384         BANKSEL r0x101D
010B   00??           01385         MOVWF   r0x101D
                      01386 ;;; /home/sdcc-builder/build/sdcc-build/orig/sdcc/src/pic14/gen.c:2316:resultRemat *{*
                      01387 ;;; /home/sdcc-builder/build/sdcc-build/orig/sdcc/src/pic14/gen.c:5418:genGenericShift *{*
                      01388 ;; ***  genGenericShift  5421
                      01389 ;;      694 register type nRegs=1
                      01390 ;;      575
                      01391 ;; >>> /home/sdcc-builder/build/sdcc-build/orig/sdcc/src/pic14/gen.c:5306:shiftRight_Left2ResultLit
                      01392 ;;      1109 rIdx = r0x105E 
010C   0E??           01393         SWAPF   r0x101D,W
                      01394 ;; >>> /home/sdcc-builder/build/sdcc-build/orig/sdcc/src/pic14/gen.c:5307:shiftRight_Left2ResultLit
010D   390F           01395         ANDLW   0x0f
                      01396 ;; >>> /home/sdcc-builder/build/sdcc-build/orig/sdcc/src/pic14/gen.c:5308:shiftRight_Left2ResultLit
                      01397 ;;      1109 rIdx = r0x105F 
010E   00??           01398         MOVWF   r0x101E
                      01399 ;; ***  addSign  861
                      01400 ;;; /home/sdcc-builder/build/sdcc-build/orig/sdcc/src/pic14/genarith.c:862:addSign *{*
                      01401 ;;; /home/sdcc-builder/build/sdcc-build/orig/sdcc/src/pic14/gen.c:2316:resultRemat *{*
                      01402 ;;; /home/sdcc-builder/build/sdcc-build/orig/sdcc/src/pic14/gen.c:2760:genLabel *{*
                      01403 ;; ***  genLabel  2763
                      01404 ;;; /home/sdcc-builder/build/sdcc-build/orig/sdcc/src/pic14/gen.c:2316:resultRemat *{*
                      01405 ;;; /home/sdcc-builder/build/sdcc-build/orig/sdcc/src/pic14/gen.c:2683:genRet *{*
                      01406 ;; ***  genRet  2685
                      01407 ;;      575
gpasm-1.4.0 #1106 (Oct  6 2014) obj\Debug\ssd   1-13-2021  14:26:32         PAGE 28


LOC    OBJECT CODE    LINE  SOURCE TEXT
  VALUE

                      01408 ;;; /home/sdcc-builder/build/sdcc-build/orig/sdcc/src/pic14/gen.c:1343:mov2w_op *{*
                      01409 ;; ***  mov2w  1381  offset=0
                      01410 ;; >>> /home/sdcc-builder/build/sdcc-build/orig/sdcc/src/pic14/gen.c:1386:mov2w
                      01411 ;;      1109 rIdx = r0x105F 
010F                  01412 _00195_DS_
                      01413         .line   191; "ssd.c"    return ret;
010F   ???? ????      01414         BANKSEL r0x101E
0111   08??           01415         MOVF    r0x101E,W
                      01416 ;;; /home/sdcc-builder/build/sdcc-build/orig/sdcc/src/pic14/gen.c:2316:resultRemat *{*
                      01417 ;;; /home/sdcc-builder/build/sdcc-build/orig/sdcc/src/pic14/gen.c:2760:genLabel *{*
                      01418 ;; ***  genLabel  2763
                      01419 ;;; /home/sdcc-builder/build/sdcc-build/orig/sdcc/src/pic14/gen.c:2316:resultRemat *{*
                      01420 ;;; /home/sdcc-builder/build/sdcc-build/orig/sdcc/src/pic14/gen.c:2528:genEndFunction *{*
                      01421 ;; ***  genEndFunction  2530
0112   0008           01422         RETURN  
                      01423 ; exit point of _SSD_GetState
                      01424 ;;; /home/sdcc-builder/build/sdcc-build/orig/sdcc/src/pic14/gen.c:7426:genpic14Code *{*
                      01425 
                      01426 ;***
                      01427 ;  pBlock Stats: dbName = C
                      01428 ;***
                      01429 ;entry:  _SSD_GetSymbol ;Function start
                      01430 ; 2 exit points
                      01431 ;has an exit
                      01432 ;3 compiler assigned registers:
                      01433 ;   r0x101F
                      01434 ;   r0x1020
                      01435 ;   r0x1021
                      01436 ;; Starting pCode block
                      01437 ;;; /home/sdcc-builder/build/sdcc-build/orig/sdcc/src/pic14/gen.c:2316:resultRemat *{*
                      01438 ;;; /home/sdcc-builder/build/sdcc-build/orig/sdcc/src/pic14/gen.c:2760:genLabel *{*
                      01439 ;; ***  genLabel  2763
                      01440 ;;; /home/sdcc-builder/build/sdcc-build/orig/sdcc/src/pic14/gen.c:2316:resultRemat *{*
                      01441 ;;; /home/sdcc-builder/build/sdcc-build/orig/sdcc/src/pic14/gen.c:2340:genFunction *{*
                      01442 ;; ***  genFunction  2342 curr label offset=68previous max_key=13 
0113                  01443 _SSD_GetSymbol  ;Function start
                      01444 ; 2 exit points
                      01445 ;;; /home/sdcc-builder/build/sdcc-build/orig/sdcc/src/pic14/gen.c:2316:resultRemat *{*
                      01446 ;;; /home/sdcc-builder/build/sdcc-build/orig/sdcc/src/pic14/gen.c:7358:genReceive *{*
                      01447 ;; ***  genReceive  7359
                      01448 ;;      694 register type nRegs=1
                      01449 ;;; /home/sdcc-builder/build/sdcc-build/orig/sdcc/src/pic14/gen.c:1907:assignResultValue *{*
                      01450 ;; ***  assignResultValue  1909
                      01451 ;;      line = 1911 result -=-, size=0, left AOP_REG=r0x105B, size=1, right -=-, size=0
                      01452 ;; >>> /home/sdcc-builder/build/sdcc-build/orig/sdcc/src/pic14/gen.c:1393:movwf
                      01453 ;;      1109 rIdx = r0x105B 
                      01454         .line   159; "ssd.c"    tSSD_Symbol SSD_GetSymbol(tSSD ssd)
0113   ???? ????      01455         BANKSEL r0x101F
0115   00??           01456         MOVWF   r0x101F
                      01457         .line   163; "ssd.c"    ret = ssd_symbols[ssd];
0116   3E??           01458         ADDLW   (_ssd_symbols + 0)
                      01459 ;; >>> /home/sdcc-builder/build/sdcc-build/orig/sdcc/src/pic14/genarith.c:736:genPlus
                      01460 ;;      1109 rIdx = r0x105B 
gpasm-1.4.0 #1106 (Oct  6 2014) obj\Debug\ssd   1-13-2021  14:26:32         PAGE 29


LOC    OBJECT CODE    LINE  SOURCE TEXT
  VALUE

0117   00??           01461         MOVWF   r0x101F
                      01462 ;; >>> /home/sdcc-builder/build/sdcc-build/orig/sdcc/src/pic14/genarith.c:799:genPlus
0118   30??           01463         MOVLW   high (_ssd_symbols + 0)
                      01464 ;; >>> /home/sdcc-builder/build/sdcc-build/orig/sdcc/src/pic14/genarith.c:800:genPlus
0119   1803           01465         BTFSC   STATUS,0
                      01466 ;; >>> /home/sdcc-builder/build/sdcc-build/orig/sdcc/src/pic14/genarith.c:801:genPlus
011A   3E01           01467         ADDLW   0x01
                      01468 ;; >>> /home/sdcc-builder/build/sdcc-build/orig/sdcc/src/pic14/genarith.c:802:genPlus
                      01469 ;;      1109 rIdx = r0x105C 
011B   00??           01470         MOVWF   r0x1020
                      01471 ;;; /home/sdcc-builder/build/sdcc-build/orig/sdcc/src/pic14/gen.c:2316:resultRemat *{*
                      01472 ;;; /home/sdcc-builder/build/sdcc-build/orig/sdcc/src/pic14/gen.c:6162:genPointerGet *{*
                      01473 ;; ***  genPointerGet  6163
                      01474 ;;; /home/sdcc-builder/build/sdcc-build/orig/sdcc/src/pic14/gen.c:5944:genNearPointerGet *{*
                      01475 ;; ***  genNearPointerGet  5945
                      01476 ;;      694 register type nRegs=2
                      01477 ;; ***  genNearPointerGet  5961
                      01478 ;;      694 register type nRegs=1
                      01479 ;;; /home/sdcc-builder/build/sdcc-build/orig/sdcc/src/pic14/gen.c:1343:mov2w_op *{*
                      01480 ;; ***  mov2w  1381  offset=0
                      01481 ;; >>> /home/sdcc-builder/build/sdcc-build/orig/sdcc/src/pic14/gen.c:1386:mov2w
                      01482 ;;      1109 rIdx = r0x105B 
011C   08??           01483         MOVF    r0x101F,W
                      01484 ;; >>> /home/sdcc-builder/build/sdcc-build/orig/sdcc/src/pic14/gen.c:5602:setup_fsr
011D   1283 1303      01485         BANKSEL FSR
011F   0084           01486         MOVWF   FSR
                      01487 ;;; /home/sdcc-builder/build/sdcc-build/orig/sdcc/src/pic14/gen.c:5553:SetIrp *{*
                      01488 ;; >>> /home/sdcc-builder/build/sdcc-build/orig/sdcc/src/pic14/gen.c:5580:SetIrp
0120   1383           01489         BCF     STATUS,7
                      01490 ;; >>> /home/sdcc-builder/build/sdcc-build/orig/sdcc/src/pic14/gen.c:5583:SetIrp
0121   ???? ????      01491         BANKSEL r0x1020
0123   18??           01492         BTFSC   r0x1020,0
                      01493 ;; >>> /home/sdcc-builder/build/sdcc-build/orig/sdcc/src/pic14/gen.c:5584:SetIrp
0124   1783           01494         BSF     STATUS,7
                      01495 ;; ***  genNearPointerGet  5988
                      01496 ;; >>> /home/sdcc-builder/build/sdcc-build/orig/sdcc/src/pic14/gen.c:5995:genNearPointerGet
0125   1283 1303      01497         BANKSEL INDF
0127   0800           01498         MOVF    INDF,W
                      01499 ;; >>> /home/sdcc-builder/build/sdcc-build/orig/sdcc/src/pic14/gen.c:6002:genNearPointerGet
                      01500 ;;      1109 rIdx = r0x105D 
                      01501 ;;1     MOVWF   r0x1021
                      01502         .line   165; "ssd.c"    return ret;
0128   0008           01503         RETURN  
                      01504 ; exit point of _SSD_GetSymbol
                      01505 ;;; /home/sdcc-builder/build/sdcc-build/orig/sdcc/src/pic14/gen.c:7426:genpic14Code *{*
                      01506 
                      01507 ;***
                      01508 ;  pBlock Stats: dbName = C
                      01509 ;***
                      01510 ;entry:  _SSD_SetState  ;Function start
                      01511 ; 2 exit points
                      01512 ;has an exit
                      01513 ;5 compiler assigned registers:
gpasm-1.4.0 #1106 (Oct  6 2014) obj\Debug\ssd   1-13-2021  14:26:32         PAGE 30


LOC    OBJECT CODE    LINE  SOURCE TEXT
  VALUE

                      01514 ;   r0x1016
                      01515 ;   STK00
                      01516 ;   r0x1017
                      01517 ;   r0x1018
                      01518 ;   r0x1019
                      01519 ;; Starting pCode block
                      01520 ;;; /home/sdcc-builder/build/sdcc-build/orig/sdcc/src/pic14/gen.c:2316:resultRemat *{*
                      01521 ;;; /home/sdcc-builder/build/sdcc-build/orig/sdcc/src/pic14/gen.c:2760:genLabel *{*
                      01522 ;; ***  genLabel  2763
                      01523 ;;; /home/sdcc-builder/build/sdcc-build/orig/sdcc/src/pic14/gen.c:2316:resultRemat *{*
                      01524 ;;; /home/sdcc-builder/build/sdcc-build/orig/sdcc/src/pic14/gen.c:2340:genFunction *{*
                      01525 ;; ***  genFunction  2342 curr label offset=64previous max_key=0 
0129                  01526 _SSD_SetState   ;Function start
                      01527 ; 2 exit points
                      01528 ;;; /home/sdcc-builder/build/sdcc-build/orig/sdcc/src/pic14/gen.c:2316:resultRemat *{*
                      01529 ;;; /home/sdcc-builder/build/sdcc-build/orig/sdcc/src/pic14/gen.c:7358:genReceive *{*
                      01530 ;; ***  genReceive  7359
                      01531 ;;      694 register type nRegs=1
                      01532 ;;; /home/sdcc-builder/build/sdcc-build/orig/sdcc/src/pic14/gen.c:1907:assignResultValue *{*
                      01533 ;; ***  assignResultValue  1909
                      01534 ;;      line = 1911 result -=-, size=0, left AOP_REG=r0x1057, size=1, right -=-, size=0
                      01535 ;; >>> /home/sdcc-builder/build/sdcc-build/orig/sdcc/src/pic14/gen.c:1393:movwf
                      01536 ;;      1109 rIdx = r0x1057 
                      01537         .line   137; "ssd.c"    void SSD_SetState(tSSD ssd, tSSD_State state)
0129   ???? ????      01538         BANKSEL r0x1016
012B   00??           01539         MOVWF   r0x1016
                      01540 ;;; /home/sdcc-builder/build/sdcc-build/orig/sdcc/src/pic14/gen.c:2316:resultRemat *{*
                      01541 ;;; /home/sdcc-builder/build/sdcc-build/orig/sdcc/src/pic14/gen.c:7358:genReceive *{*
                      01542 ;; ***  genReceive  7359
                      01543 ;;      694 register type nRegs=1
                      01544 ;;; /home/sdcc-builder/build/sdcc-build/orig/sdcc/src/pic14/gen.c:1907:assignResultValue *{*
                      01545 ;; ***  assignResultValue  1909
                      01546 ;;      line = 1911 result -=-, size=0, left AOP_REG=r0x1058, size=1, right -=-, size=0
                      01547 ;; >>> /home/sdcc-builder/build/sdcc-build/orig/sdcc/src/pic14/gen.c:1423:get_returnvalue
                      01548 ;; ***  popRegFromIdx,1042  , rIdx=0x7f
012C   08??           01549         MOVF    STK00,W
                      01550 ;; >>> /home/sdcc-builder/build/sdcc-build/orig/sdcc/src/pic14/gen.c:1393:movwf
                      01551 ;;      1109 rIdx = r0x1058 
012D   00??           01552         MOVWF   r0x1017
                      01553 ;;; /home/sdcc-builder/build/sdcc-build/orig/sdcc/src/pic14/gen.c:2316:resultRemat *{*
                      01554 ;;; /home/sdcc-builder/build/sdcc-build/orig/sdcc/src/pic14/gen.c:3547:genCmpGt *{*
                      01555 ;; ***  genCmpGt  3548
                      01556 ;;      694 register type nRegs=1
                      01557 ;;; /home/sdcc-builder/build/sdcc-build/orig/sdcc/src/pic14/gen.c:3294:genCmp *{*
                      01558 ;;swapping arguments (AOP_TYPEs 1/2)
                      01559 ;;unsigned compare: left >= lit(0x4=4), size=1
                      01560 ;; >>> /home/sdcc-builder/build/sdcc-build/orig/sdcc/src/pic14/gen.c:3265:pic14_mov2w_regOrLit
                      01561         .line   139; "ssd.c"    switch(ssd)
012E   3004           01562         MOVLW   0x04
                      01563 ;; >>> /home/sdcc-builder/build/sdcc-build/orig/sdcc/src/pic14/gen.c:3432:genCmp
                      01564 ;;      1109 rIdx = r0x1057 
012F   02??           01565         SUBWF   r0x1016,W
                      01566 ;;; /home/sdcc-builder/build/sdcc-build/orig/sdcc/src/pic14/gen.c:3237:genSkipc *{*
gpasm-1.4.0 #1106 (Oct  6 2014) obj\Debug\ssd   1-13-2021  14:26:32         PAGE 31


LOC    OBJECT CODE    LINE  SOURCE TEXT
  VALUE

                      01567 ;; >>> /home/sdcc-builder/build/sdcc-build/orig/sdcc/src/pic14/gen.c:3242:genSkipc
0130   1803           01568         BTFSC   STATUS,0
                      01569 ;; >>> /home/sdcc-builder/build/sdcc-build/orig/sdcc/src/pic14/gen.c:3246:genSkipc
                      01570 ;; ***  popGetLabel  key=7, label offset 68
0131   2???           01571         GOTO    _00175_DS_
                      01572 ;;genSkipc:3247: created from rifx:027A5DF4
                      01573 ;;; /home/sdcc-builder/build/sdcc-build/orig/sdcc/src/pic14/gen.c:2316:resultRemat *{*
                      01574 ;;; /home/sdcc-builder/build/sdcc-build/orig/sdcc/src/pic14/gen.c:2316:resultRemat *{*
                      01575 ;;; /home/sdcc-builder/build/sdcc-build/orig/sdcc/src/pic14/gen.c:7071:genJumpTab *{*
                      01576 ;; ***  genJumpTab  7072
                      01577 ;;      694 register type nRegs=1
                      01578 ;; >>> /home/sdcc-builder/build/sdcc-build/orig/sdcc/src/pic14/gen.c:7087:genJumpTab
                      01579 ;; ***  popGetLabel  key=13, label offset 68
0132   30??           01580         MOVLW   HIGH(_00181_DS_)
                      01581 ;; >>> /home/sdcc-builder/build/sdcc-build/orig/sdcc/src/pic14/gen.c:7088:genJumpTab
0133   1283 1303      01582         BANKSEL PCLATH
0135   008A           01583         MOVWF   PCLATH
                      01584 ;; >>> /home/sdcc-builder/build/sdcc-build/orig/sdcc/src/pic14/gen.c:7089:genJumpTab
                      01585 ;; ***  popGetLabel  key=13, label offset 68
0136   30??           01586         MOVLW   _00181_DS_
                      01587 ;; >>> /home/sdcc-builder/build/sdcc-build/orig/sdcc/src/pic14/gen.c:7090:genJumpTab
                      01588 ;;      1109 rIdx = r0x1057 
0137   ???? ????      01589         BANKSEL r0x1016
0139   07??           01590         ADDWF   r0x1016,W
                      01591 ;; >>> /home/sdcc-builder/build/sdcc-build/orig/sdcc/src/pic14/gen.c:7091:genJumpTab
013A   1C03           01592         BTFSS   STATUS,0
013B   2???           01593         GOTO    _00004_DS_
                      01594 ;; >>> /home/sdcc-builder/build/sdcc-build/orig/sdcc/src/pic14/gen.c:7092:genJumpTab
013C   1283 1303      01595         BANKSEL PCLATH
013E   0A8A           01596         INCF    PCLATH,F
                      01597 ;; >>> /home/sdcc-builder/build/sdcc-build/orig/sdcc/src/pic14/gen.c:7093:genJumpTab
013F                  01598 _00004_DS_
013F   0082           01599         MOVWF   PCL
                      01600 ;; >>> /home/sdcc-builder/build/sdcc-build/orig/sdcc/src/pic14/gen.c:7102:genJumpTab
                      01601 ;; ***  popGetLabel  key=1, label offset 68
0140                  01602 _00181_DS_
0140   2???           01603         GOTO    _00169_DS_
                      01604 ;; >>> /home/sdcc-builder/build/sdcc-build/orig/sdcc/src/pic14/gen.c:7102:genJumpTab
                      01605 ;; ***  popGetLabel  key=2, label offset 68
0141   2???           01606         GOTO    _00170_DS_
                      01607 ;; >>> /home/sdcc-builder/build/sdcc-build/orig/sdcc/src/pic14/gen.c:7102:genJumpTab
                      01608 ;; ***  popGetLabel  key=3, label offset 68
0142   2???           01609         GOTO    _00171_DS_
                      01610 ;; >>> /home/sdcc-builder/build/sdcc-build/orig/sdcc/src/pic14/gen.c:7102:genJumpTab
                      01611 ;; ***  popGetLabel  key=4, label offset 68
0143   2???           01612         GOTO    _00172_DS_
                      01613 ;;; /home/sdcc-builder/build/sdcc-build/orig/sdcc/src/pic14/gen.c:2316:resultRemat *{*
                      01614 ;;; /home/sdcc-builder/build/sdcc-build/orig/sdcc/src/pic14/gen.c:2760:genLabel *{*
                      01615 ;; ***  genLabel  2763
                      01616 ;;; /home/sdcc-builder/build/sdcc-build/orig/sdcc/src/pic14/gen.c:2316:resultRemat *{*
                      01617 ;;; /home/sdcc-builder/build/sdcc-build/orig/sdcc/src/pic14/gen.c:7120:genCast *{*
                      01618 ;; ***  genCast  7121
                      01619 ;; ***  aopForSym 315
gpasm-1.4.0 #1106 (Oct  6 2014) obj\Debug\ssd   1-13-2021  14:26:32         PAGE 32


LOC    OBJECT CODE    LINE  SOURCE TEXT
  VALUE

                      01620 ;;      327 sym->rname = _PORTB, size = 1
                      01621 ;;      694 register type nRegs=1
                      01622 ;;      line = 7129 result AOP_REG=r0x1057, size=1, left -=-, size=0, right AOP_DIR=_PORTB, size=1
                      01623 ;; ***  genCast  7253
                      01624 ;; >>> /home/sdcc-builder/build/sdcc-build/orig/sdcc/src/pic14/gen.c:7277:genCast
                      01625 ;;      1009
                      01626 ;;      1028  _PORTB   offset=0
0144                  01627 _00169_DS_
                      01628         .line   142; "ssd.c"    GPIO_WritePortPin(GPIO_PORTB_DATA, SSD_1_PIN, state);
0144   ???? ????      01629         BANKSEL _PORTB
0146   08??           01630         MOVF    _PORTB,W
                      01631 ;; >>> /home/sdcc-builder/build/sdcc-build/orig/sdcc/src/pic14/gen.c:7278:genCast
                      01632 ;;      1109 rIdx = r0x1057 
0147   ???? ????      01633         BANKSEL r0x1016
0149   00??           01634         MOVWF   r0x1016
                      01635 ;;; /home/sdcc-builder/build/sdcc-build/orig/sdcc/src/pic14/gen.c:2316:resultRemat *{*
                      01636 ;;; /home/sdcc-builder/build/sdcc-build/orig/sdcc/src/pic14/gen.c:3919:genAnd *{*
                      01637 ;; ***  genAnd  3920
                      01638 ;;      694 register type nRegs=1
                      01639 ;;      694 register type nRegs=1
                      01640 ;;      line = 3955 result AOP_REG=r0x1057, size=1, left AOP_REG=r0x1057, size=1, right AOP_LIT=0x7f, si
                            ze=1
                      01641 ;; >>> /home/sdcc-builder/build/sdcc-build/orig/sdcc/src/pic14/gen.c:4122:genAnd
014A   13??           01642         BCF     r0x1016,7
                      01643 ;;; /home/sdcc-builder/build/sdcc-build/orig/sdcc/src/pic14/gen.c:2316:resultRemat *{*
                      01644 ;;; /home/sdcc-builder/build/sdcc-build/orig/sdcc/src/pic14/gen.c:5418:genGenericShift *{*
                      01645 ;; ***  genGenericShift  5421
                      01646 ;;      694 register type nRegs=1
                      01647 ;;      694 register type nRegs=1
                      01648 ;; >>> /home/sdcc-builder/build/sdcc-build/orig/sdcc/src/pic14/gen.c:5217:shiftLeft_Left2ResultLit
                      01649 ;;      1109 rIdx = r0x1058 
014B   0C??           01650         RRF     r0x1017,W
                      01651 ;; >>> /home/sdcc-builder/build/sdcc-build/orig/sdcc/src/pic14/gen.c:5223:shiftLeft_Left2ResultLit
                      01652 ;;      1109 rIdx = r0x1059 
014C   01??           01653         CLRF    r0x1018
                      01654 ;; >>> /home/sdcc-builder/build/sdcc-build/orig/sdcc/src/pic14/gen.c:5224:shiftLeft_Left2ResultLit
                      01655 ;;      1109 rIdx = r0x1059 
014D   0C??           01656         RRF     r0x1018,F
                      01657 ;;; /home/sdcc-builder/build/sdcc-build/orig/sdcc/src/pic14/gen.c:2316:resultRemat *{*
                      01658 ;;; /home/sdcc-builder/build/sdcc-build/orig/sdcc/src/pic14/gen.c:7120:genCast *{*
                      01659 ;; ***  genCast  7121
                      01660 ;;      694 register type nRegs=1
                      01661 ;;      line = 7129 result AOP_REG=r0x105A, size=1, left -=-, size=0, right AOP_REG=r0x1059, size=1
                      01662 ;; ***  genCast  7253
                      01663 ;; >>> /home/sdcc-builder/build/sdcc-build/orig/sdcc/src/pic14/gen.c:7277:genCast
                      01664 ;;      1109 rIdx = r0x1059 
014E   08??           01665         MOVF    r0x1018,W
014F   00??           01666         MOVWF   r0x1019
0150   04??           01667         IORWF   r0x1016,W
                      01668 ;; >>> /home/sdcc-builder/build/sdcc-build/orig/sdcc/src/pic14/gen.c:4481:genOr
                      01669 ;;      1009
                      01670 ;;      1028  _PORTB   offset=0
0151   ???? ????      01671         BANKSEL _PORTB
gpasm-1.4.0 #1106 (Oct  6 2014) obj\Debug\ssd   1-13-2021  14:26:32         PAGE 33


LOC    OBJECT CODE    LINE  SOURCE TEXT
  VALUE

0153   00??           01672         MOVWF   _PORTB
                      01673 ;;; /home/sdcc-builder/build/sdcc-build/orig/sdcc/src/pic14/gen.c:2316:resultRemat *{*
                      01674 ;;; /home/sdcc-builder/build/sdcc-build/orig/sdcc/src/pic14/gen.c:2778:genGoto *{*
                      01675 ;; >>> /home/sdcc-builder/build/sdcc-build/orig/sdcc/src/pic14/gen.c:2780:genGoto
                      01676 ;; ***  popGetLabel  key=7, label offset 68
                      01677         .line   143; "ssd.c"    break;
0154   2???           01678         GOTO    _00175_DS_
                      01679 ;;; /home/sdcc-builder/build/sdcc-build/orig/sdcc/src/pic14/gen.c:2316:resultRemat *{*
                      01680 ;;; /home/sdcc-builder/build/sdcc-build/orig/sdcc/src/pic14/gen.c:2760:genLabel *{*
                      01681 ;; ***  genLabel  2763
                      01682 ;;; /home/sdcc-builder/build/sdcc-build/orig/sdcc/src/pic14/gen.c:2316:resultRemat *{*
                      01683 ;;; /home/sdcc-builder/build/sdcc-build/orig/sdcc/src/pic14/gen.c:7120:genCast *{*
                      01684 ;; ***  genCast  7121
                      01685 ;; ***  aopForSym 315
                      01686 ;;      327 sym->rname = _PORTB, size = 1
                      01687 ;;      694 register type nRegs=1
                      01688 ;;      line = 7129 result AOP_REG=r0x1057, size=1, left -=-, size=0, right AOP_DIR=_PORTB, size=1
                      01689 ;; ***  genCast  7253
                      01690 ;; >>> /home/sdcc-builder/build/sdcc-build/orig/sdcc/src/pic14/gen.c:7277:genCast
                      01691 ;;      1009
                      01692 ;;      1028  _PORTB   offset=0
0155                  01693 _00170_DS_
                      01694         .line   145; "ssd.c"    GPIO_WritePortPin(GPIO_PORTB_DATA, SSD_2_PIN, state);
0155   ???? ????      01695         BANKSEL _PORTB
0157   08??           01696         MOVF    _PORTB,W
                      01697 ;; >>> /home/sdcc-builder/build/sdcc-build/orig/sdcc/src/pic14/gen.c:7278:genCast
                      01698 ;;      1109 rIdx = r0x1057 
0158   ???? ????      01699         BANKSEL r0x1016
015A   00??           01700         MOVWF   r0x1016
                      01701 ;;; /home/sdcc-builder/build/sdcc-build/orig/sdcc/src/pic14/gen.c:2316:resultRemat *{*
                      01702 ;;; /home/sdcc-builder/build/sdcc-build/orig/sdcc/src/pic14/gen.c:3919:genAnd *{*
                      01703 ;; ***  genAnd  3920
                      01704 ;;      694 register type nRegs=1
                      01705 ;;      694 register type nRegs=1
                      01706 ;;      line = 3955 result AOP_REG=r0x1057, size=1, left AOP_REG=r0x1057, size=1, right AOP_LIT=0xbf, si
                            ze=1
                      01707 ;; >>> /home/sdcc-builder/build/sdcc-build/orig/sdcc/src/pic14/gen.c:4122:genAnd
015B   13??           01708         BCF     r0x1016,6
                      01709 ;;; /home/sdcc-builder/build/sdcc-build/orig/sdcc/src/pic14/gen.c:2316:resultRemat *{*
                      01710 ;;; /home/sdcc-builder/build/sdcc-build/orig/sdcc/src/pic14/gen.c:5418:genGenericShift *{*
                      01711 ;; ***  genGenericShift  5421
                      01712 ;;      575
                      01713 ;;      694 register type nRegs=1
                      01714 ;; >>> /home/sdcc-builder/build/sdcc-build/orig/sdcc/src/pic14/gen.c:5201:shiftLeft_Left2ResultLit
                      01715 ;;      1109 rIdx = r0x1058 
015C   0E??           01716         SWAPF   r0x1017,W
                      01717 ;; >>> /home/sdcc-builder/build/sdcc-build/orig/sdcc/src/pic14/gen.c:5202:shiftLeft_Left2ResultLit
015D   39F0           01718         ANDLW   0xf0
                      01719 ;; >>> /home/sdcc-builder/build/sdcc-build/orig/sdcc/src/pic14/gen.c:5203:shiftLeft_Left2ResultLit
                      01720 ;;      1109 rIdx = r0x1059 
015E   00??           01721         MOVWF   r0x1018
                      01722 ;; >>> /home/sdcc-builder/build/sdcc-build/orig/sdcc/src/pic14/gen.c:5183:shiftLeft_Left2ResultLit
015F   1003           01723         BCF     STATUS,0
gpasm-1.4.0 #1106 (Oct  6 2014) obj\Debug\ssd   1-13-2021  14:26:32         PAGE 34


LOC    OBJECT CODE    LINE  SOURCE TEXT
  VALUE

                      01724 ;; >>> /home/sdcc-builder/build/sdcc-build/orig/sdcc/src/pic14/gen.c:5188:shiftLeft_Left2ResultLit
                      01725 ;;      1109 rIdx = r0x1059 
0160   0D??           01726         RLF     r0x1018,F
                      01727 ;; >>> /home/sdcc-builder/build/sdcc-build/orig/sdcc/src/pic14/gen.c:5183:shiftLeft_Left2ResultLit
0161   1003           01728         BCF     STATUS,0
                      01729 ;; >>> /home/sdcc-builder/build/sdcc-build/orig/sdcc/src/pic14/gen.c:5188:shiftLeft_Left2ResultLit
                      01730 ;;      1109 rIdx = r0x1059 
0162   0D??           01731         RLF     r0x1018,F
                      01732 ;;; /home/sdcc-builder/build/sdcc-build/orig/sdcc/src/pic14/gen.c:2316:resultRemat *{*
                      01733 ;;; /home/sdcc-builder/build/sdcc-build/orig/sdcc/src/pic14/gen.c:7120:genCast *{*
                      01734 ;; ***  genCast  7121
                      01735 ;;      694 register type nRegs=1
                      01736 ;;      line = 7129 result AOP_REG=r0x105A, size=1, left -=-, size=0, right AOP_REG=r0x1059, size=1
                      01737 ;; ***  genCast  7253
                      01738 ;; >>> /home/sdcc-builder/build/sdcc-build/orig/sdcc/src/pic14/gen.c:7277:genCast
                      01739 ;;      1109 rIdx = r0x1059 
0163   08??           01740         MOVF    r0x1018,W
0164   00??           01741         MOVWF   r0x1019
0165   04??           01742         IORWF   r0x1016,W
                      01743 ;; >>> /home/sdcc-builder/build/sdcc-build/orig/sdcc/src/pic14/gen.c:4481:genOr
                      01744 ;;      1009
                      01745 ;;      1028  _PORTB   offset=0
0166   ???? ????      01746         BANKSEL _PORTB
0168   00??           01747         MOVWF   _PORTB
                      01748 ;;; /home/sdcc-builder/build/sdcc-build/orig/sdcc/src/pic14/gen.c:2316:resultRemat *{*
                      01749 ;;; /home/sdcc-builder/build/sdcc-build/orig/sdcc/src/pic14/gen.c:2778:genGoto *{*
                      01750 ;; >>> /home/sdcc-builder/build/sdcc-build/orig/sdcc/src/pic14/gen.c:2780:genGoto
                      01751 ;; ***  popGetLabel  key=7, label offset 68
                      01752         .line   146; "ssd.c"    break;
0169   2???           01753         GOTO    _00175_DS_
                      01754 ;;; /home/sdcc-builder/build/sdcc-build/orig/sdcc/src/pic14/gen.c:2316:resultRemat *{*
                      01755 ;;; /home/sdcc-builder/build/sdcc-build/orig/sdcc/src/pic14/gen.c:2760:genLabel *{*
                      01756 ;; ***  genLabel  2763
                      01757 ;;; /home/sdcc-builder/build/sdcc-build/orig/sdcc/src/pic14/gen.c:2316:resultRemat *{*
                      01758 ;;; /home/sdcc-builder/build/sdcc-build/orig/sdcc/src/pic14/gen.c:7120:genCast *{*
                      01759 ;; ***  genCast  7121
                      01760 ;; ***  aopForSym 315
                      01761 ;;      327 sym->rname = _PORTB, size = 1
                      01762 ;;      694 register type nRegs=1
                      01763 ;;      line = 7129 result AOP_REG=r0x1057, size=1, left -=-, size=0, right AOP_DIR=_PORTB, size=1
                      01764 ;; ***  genCast  7253
                      01765 ;; >>> /home/sdcc-builder/build/sdcc-build/orig/sdcc/src/pic14/gen.c:7277:genCast
                      01766 ;;      1009
                      01767 ;;      1028  _PORTB   offset=0
016A                  01768 _00171_DS_
                      01769         .line   148; "ssd.c"    GPIO_WritePortPin(GPIO_PORTB_DATA, SSD_3_PIN, state);
016A   ???? ????      01770         BANKSEL _PORTB
016C   08??           01771         MOVF    _PORTB,W
                      01772 ;; >>> /home/sdcc-builder/build/sdcc-build/orig/sdcc/src/pic14/gen.c:7278:genCast
                      01773 ;;      1109 rIdx = r0x1057 
016D   ???? ????      01774         BANKSEL r0x1016
016F   00??           01775         MOVWF   r0x1016
                      01776 ;;; /home/sdcc-builder/build/sdcc-build/orig/sdcc/src/pic14/gen.c:2316:resultRemat *{*
gpasm-1.4.0 #1106 (Oct  6 2014) obj\Debug\ssd   1-13-2021  14:26:32         PAGE 35


LOC    OBJECT CODE    LINE  SOURCE TEXT
  VALUE

                      01777 ;;; /home/sdcc-builder/build/sdcc-build/orig/sdcc/src/pic14/gen.c:3919:genAnd *{*
                      01778 ;; ***  genAnd  3920
                      01779 ;;      694 register type nRegs=1
                      01780 ;;      694 register type nRegs=1
                      01781 ;;      line = 3955 result AOP_REG=r0x1057, size=1, left AOP_REG=r0x1057, size=1, right AOP_LIT=0xdf, si
                            ze=1
                      01782 ;; >>> /home/sdcc-builder/build/sdcc-build/orig/sdcc/src/pic14/gen.c:4122:genAnd
0170   12??           01783         BCF     r0x1016,5
                      01784 ;;; /home/sdcc-builder/build/sdcc-build/orig/sdcc/src/pic14/gen.c:2316:resultRemat *{*
                      01785 ;;; /home/sdcc-builder/build/sdcc-build/orig/sdcc/src/pic14/gen.c:5418:genGenericShift *{*
                      01786 ;; ***  genGenericShift  5421
                      01787 ;;      575
                      01788 ;;      694 register type nRegs=1
                      01789 ;; >>> /home/sdcc-builder/build/sdcc-build/orig/sdcc/src/pic14/gen.c:5201:shiftLeft_Left2ResultLit
                      01790 ;;      1109 rIdx = r0x1058 
0171   0E??           01791         SWAPF   r0x1017,W
                      01792 ;; >>> /home/sdcc-builder/build/sdcc-build/orig/sdcc/src/pic14/gen.c:5202:shiftLeft_Left2ResultLit
0172   39F0           01793         ANDLW   0xf0
                      01794 ;; >>> /home/sdcc-builder/build/sdcc-build/orig/sdcc/src/pic14/gen.c:5203:shiftLeft_Left2ResultLit
                      01795 ;;      1109 rIdx = r0x1059 
0173   00??           01796         MOVWF   r0x1018
                      01797 ;; >>> /home/sdcc-builder/build/sdcc-build/orig/sdcc/src/pic14/gen.c:5183:shiftLeft_Left2ResultLit
0174   1003           01798         BCF     STATUS,0
                      01799 ;; >>> /home/sdcc-builder/build/sdcc-build/orig/sdcc/src/pic14/gen.c:5188:shiftLeft_Left2ResultLit
                      01800 ;;      1109 rIdx = r0x1059 
0175   0D??           01801         RLF     r0x1018,F
                      01802 ;;; /home/sdcc-builder/build/sdcc-build/orig/sdcc/src/pic14/gen.c:2316:resultRemat *{*
                      01803 ;;; /home/sdcc-builder/build/sdcc-build/orig/sdcc/src/pic14/gen.c:7120:genCast *{*
                      01804 ;; ***  genCast  7121
                      01805 ;;      694 register type nRegs=1
                      01806 ;;      line = 7129 result AOP_REG=r0x105A, size=1, left -=-, size=0, right AOP_REG=r0x1059, size=1
                      01807 ;; ***  genCast  7253
                      01808 ;; >>> /home/sdcc-builder/build/sdcc-build/orig/sdcc/src/pic14/gen.c:7277:genCast
                      01809 ;;      1109 rIdx = r0x1059 
0176   08??           01810         MOVF    r0x1018,W
0177   00??           01811         MOVWF   r0x1019
0178   04??           01812         IORWF   r0x1016,W
                      01813 ;; >>> /home/sdcc-builder/build/sdcc-build/orig/sdcc/src/pic14/gen.c:4481:genOr
                      01814 ;;      1009
                      01815 ;;      1028  _PORTB   offset=0
0179   ???? ????      01816         BANKSEL _PORTB
017B   00??           01817         MOVWF   _PORTB
                      01818 ;;; /home/sdcc-builder/build/sdcc-build/orig/sdcc/src/pic14/gen.c:2316:resultRemat *{*
                      01819 ;;; /home/sdcc-builder/build/sdcc-build/orig/sdcc/src/pic14/gen.c:2778:genGoto *{*
                      01820 ;; >>> /home/sdcc-builder/build/sdcc-build/orig/sdcc/src/pic14/gen.c:2780:genGoto
                      01821 ;; ***  popGetLabel  key=7, label offset 68
                      01822         .line   149; "ssd.c"    break;
017C   2???           01823         GOTO    _00175_DS_
                      01824 ;;; /home/sdcc-builder/build/sdcc-build/orig/sdcc/src/pic14/gen.c:2316:resultRemat *{*
                      01825 ;;; /home/sdcc-builder/build/sdcc-build/orig/sdcc/src/pic14/gen.c:2760:genLabel *{*
                      01826 ;; ***  genLabel  2763
                      01827 ;;; /home/sdcc-builder/build/sdcc-build/orig/sdcc/src/pic14/gen.c:2316:resultRemat *{*
                      01828 ;;; /home/sdcc-builder/build/sdcc-build/orig/sdcc/src/pic14/gen.c:7120:genCast *{*
gpasm-1.4.0 #1106 (Oct  6 2014) obj\Debug\ssd   1-13-2021  14:26:32         PAGE 36


LOC    OBJECT CODE    LINE  SOURCE TEXT
  VALUE

                      01829 ;; ***  genCast  7121
                      01830 ;; ***  aopForSym 315
                      01831 ;;      327 sym->rname = _PORTB, size = 1
                      01832 ;;      694 register type nRegs=1
                      01833 ;;      line = 7129 result AOP_REG=r0x1057, size=1, left -=-, size=0, right AOP_DIR=_PORTB, size=1
                      01834 ;; ***  genCast  7253
                      01835 ;; >>> /home/sdcc-builder/build/sdcc-build/orig/sdcc/src/pic14/gen.c:7277:genCast
                      01836 ;;      1009
                      01837 ;;      1028  _PORTB   offset=0
017D                  01838 _00172_DS_
                      01839         .line   151; "ssd.c"    GPIO_WritePortPin(GPIO_PORTB_DATA, SSD_4_PIN, state);
017D   ???? ????      01840         BANKSEL _PORTB
017F   08??           01841         MOVF    _PORTB,W
                      01842 ;; >>> /home/sdcc-builder/build/sdcc-build/orig/sdcc/src/pic14/gen.c:7278:genCast
                      01843 ;;      1109 rIdx = r0x1057 
0180   ???? ????      01844         BANKSEL r0x1016
0182   00??           01845         MOVWF   r0x1016
                      01846 ;;; /home/sdcc-builder/build/sdcc-build/orig/sdcc/src/pic14/gen.c:2316:resultRemat *{*
                      01847 ;;; /home/sdcc-builder/build/sdcc-build/orig/sdcc/src/pic14/gen.c:3919:genAnd *{*
                      01848 ;; ***  genAnd  3920
                      01849 ;;      694 register type nRegs=1
                      01850 ;;      694 register type nRegs=1
                      01851 ;;      line = 3955 result AOP_REG=r0x1057, size=1, left AOP_REG=r0x1057, size=1, right AOP_LIT=0xef, si
                            ze=1
                      01852 ;; >>> /home/sdcc-builder/build/sdcc-build/orig/sdcc/src/pic14/gen.c:4122:genAnd
0183   12??           01853         BCF     r0x1016,4
                      01854 ;;; /home/sdcc-builder/build/sdcc-build/orig/sdcc/src/pic14/gen.c:2316:resultRemat *{*
                      01855 ;;; /home/sdcc-builder/build/sdcc-build/orig/sdcc/src/pic14/gen.c:5418:genGenericShift *{*
                      01856 ;; ***  genGenericShift  5421
                      01857 ;;      575
                      01858 ;;      694 register type nRegs=1
                      01859 ;; >>> /home/sdcc-builder/build/sdcc-build/orig/sdcc/src/pic14/gen.c:5201:shiftLeft_Left2ResultLit
                      01860 ;;      1109 rIdx = r0x1058 
0184   0E??           01861         SWAPF   r0x1017,W
                      01862 ;; >>> /home/sdcc-builder/build/sdcc-build/orig/sdcc/src/pic14/gen.c:5202:shiftLeft_Left2ResultLit
0185   39F0           01863         ANDLW   0xf0
                      01864 ;; >>> /home/sdcc-builder/build/sdcc-build/orig/sdcc/src/pic14/gen.c:5203:shiftLeft_Left2ResultLit
                      01865 ;;      1109 rIdx = r0x1059 
0186   00??           01866         MOVWF   r0x1018
0187   00??           01867         MOVWF   r0x1017
0188   04??           01868         IORWF   r0x1016,W
                      01869 ;; >>> /home/sdcc-builder/build/sdcc-build/orig/sdcc/src/pic14/gen.c:4481:genOr
                      01870 ;;      1009
                      01871 ;;      1028  _PORTB   offset=0
0189   ???? ????      01872         BANKSEL _PORTB
018B   00??           01873         MOVWF   _PORTB
                      01874 ;;; /home/sdcc-builder/build/sdcc-build/orig/sdcc/src/pic14/gen.c:2316:resultRemat *{*
                      01875 ;;; /home/sdcc-builder/build/sdcc-build/orig/sdcc/src/pic14/gen.c:2760:genLabel *{*
                      01876 ;; ***  genLabel  2763
                      01877 ;;; /home/sdcc-builder/build/sdcc-build/orig/sdcc/src/pic14/gen.c:2316:resultRemat *{*
                      01878 ;;; /home/sdcc-builder/build/sdcc-build/orig/sdcc/src/pic14/gen.c:2528:genEndFunction *{*
                      01879 ;; ***  genEndFunction  2530
018C                  01880 _00175_DS_
gpasm-1.4.0 #1106 (Oct  6 2014) obj\Debug\ssd   1-13-2021  14:26:32         PAGE 37


LOC    OBJECT CODE    LINE  SOURCE TEXT
  VALUE

                      01881         .line   156; "ssd.c"    }
018C   0008           01882         RETURN  
                      01883 ; exit point of _SSD_SetState
                      01884 ;;; /home/sdcc-builder/build/sdcc-build/orig/sdcc/src/pic14/gen.c:7426:genpic14Code *{*
                      01885 
                      01886 ;***
                      01887 ;  pBlock Stats: dbName = C
                      01888 ;***
                      01889 ;entry:  _SSD_SetLed    ;Function start
                      01890 ; 2 exit points
                      01891 ;has an exit
                      01892 ;; Starting pCode block
                      01893 ;;; /home/sdcc-builder/build/sdcc-build/orig/sdcc/src/pic14/gen.c:2316:resultRemat *{*
                      01894 ;;; /home/sdcc-builder/build/sdcc-build/orig/sdcc/src/pic14/gen.c:2760:genLabel *{*
                      01895 ;; ***  genLabel  2763
                      01896 ;;; /home/sdcc-builder/build/sdcc-build/orig/sdcc/src/pic14/gen.c:2316:resultRemat *{*
                      01897 ;;; /home/sdcc-builder/build/sdcc-build/orig/sdcc/src/pic14/gen.c:2340:genFunction *{*
                      01898 ;; ***  genFunction  2342 curr label offset=60previous max_key=0 
018D                  01899 _SSD_SetLed     ;Function start
                      01900 ; 2 exit points
                      01901 ;;; /home/sdcc-builder/build/sdcc-build/orig/sdcc/src/pic14/gen.c:2316:resultRemat *{*
                      01902 ;;; /home/sdcc-builder/build/sdcc-build/orig/sdcc/src/pic14/gen.c:7358:genReceive *{*
                      01903 ;; ***  genReceive  7359
                      01904 ;; ***  aopForSym 315
                      01905 ;;      327 sym->rname = _led, size = 1
                      01906 ;;; /home/sdcc-builder/build/sdcc-build/orig/sdcc/src/pic14/gen.c:1907:assignResultValue *{*
                      01907 ;; ***  assignResultValue  1909
                      01908 ;;      line = 1911 result -=-, size=0, left AOP_DIR=_led, size=1, right -=-, size=0
                      01909 ;; >>> /home/sdcc-builder/build/sdcc-build/orig/sdcc/src/pic14/gen.c:1393:movwf
                      01910 ;;      1009
                      01911 ;;      1028  _led   offset=0
                      01912         .line   133; "ssd.c"    void SSD_SetLed(tSSD_LED l){
018D   ???? ????      01913         BANKSEL _led
018F   00??           01914         MOVWF   _led
                      01915 ;;; /home/sdcc-builder/build/sdcc-build/orig/sdcc/src/pic14/gen.c:2316:resultRemat *{*
                      01916 ;;; /home/sdcc-builder/build/sdcc-build/orig/sdcc/src/pic14/gen.c:2760:genLabel *{*
                      01917 ;; ***  genLabel  2763
                      01918 ;;; /home/sdcc-builder/build/sdcc-build/orig/sdcc/src/pic14/gen.c:2316:resultRemat *{*
                      01919 ;;; /home/sdcc-builder/build/sdcc-build/orig/sdcc/src/pic14/gen.c:2528:genEndFunction *{*
                      01920 ;; ***  genEndFunction  2530
                      01921         .line   134; "ssd.c"    led=l;
0190   0008           01922         RETURN  
                      01923 ; exit point of _SSD_SetLed
                      01924 ;;; /home/sdcc-builder/build/sdcc-build/orig/sdcc/src/pic14/gen.c:7426:genpic14Code *{*
                      01925 
                      01926 ;***
                      01927 ;  pBlock Stats: dbName = C
                      01928 ;***
                      01929 ;entry:  _SSD_SetSymbol ;Function start
                      01930 ; 2 exit points
                      01931 ;has an exit
                      01932 ;4 compiler assigned registers:
                      01933 ;   r0x1022
gpasm-1.4.0 #1106 (Oct  6 2014) obj\Debug\ssd   1-13-2021  14:26:32         PAGE 38


LOC    OBJECT CODE    LINE  SOURCE TEXT
  VALUE

                      01934 ;   STK00
                      01935 ;   r0x1023
                      01936 ;   r0x1024
                      01937 ;; Starting pCode block
                      01938 ;;; /home/sdcc-builder/build/sdcc-build/orig/sdcc/src/pic14/gen.c:2316:resultRemat *{*
                      01939 ;;; /home/sdcc-builder/build/sdcc-build/orig/sdcc/src/pic14/gen.c:2760:genLabel *{*
                      01940 ;; ***  genLabel  2763
                      01941 ;;; /home/sdcc-builder/build/sdcc-build/orig/sdcc/src/pic14/gen.c:2316:resultRemat *{*
                      01942 ;;; /home/sdcc-builder/build/sdcc-build/orig/sdcc/src/pic14/gen.c:2340:genFunction *{*
                      01943 ;; ***  genFunction  2342 curr label offset=56previous max_key=0 
0191                  01944 _SSD_SetSymbol  ;Function start
                      01945 ; 2 exit points
                      01946 ;;; /home/sdcc-builder/build/sdcc-build/orig/sdcc/src/pic14/gen.c:2316:resultRemat *{*
                      01947 ;;; /home/sdcc-builder/build/sdcc-build/orig/sdcc/src/pic14/gen.c:7358:genReceive *{*
                      01948 ;; ***  genReceive  7359
                      01949 ;;      694 register type nRegs=1
                      01950 ;;; /home/sdcc-builder/build/sdcc-build/orig/sdcc/src/pic14/gen.c:1907:assignResultValue *{*
                      01951 ;; ***  assignResultValue  1909
                      01952 ;;      line = 1911 result -=-, size=0, left AOP_REG=r0x1054, size=1, right -=-, size=0
                      01953 ;; >>> /home/sdcc-builder/build/sdcc-build/orig/sdcc/src/pic14/gen.c:1393:movwf
                      01954 ;;      1109 rIdx = r0x1054 
                      01955         .line   128; "ssd.c"    void SSD_SetSymbol(tSSD ssd, tSSD_Symbol symbol)
0191   ???? ????      01956         BANKSEL r0x1022
0193   00??           01957         MOVWF   r0x1022
                      01958 ;;; /home/sdcc-builder/build/sdcc-build/orig/sdcc/src/pic14/gen.c:2316:resultRemat *{*
                      01959 ;;; /home/sdcc-builder/build/sdcc-build/orig/sdcc/src/pic14/gen.c:7358:genReceive *{*
                      01960 ;; ***  genReceive  7359
                      01961 ;;      694 register type nRegs=1
                      01962 ;;; /home/sdcc-builder/build/sdcc-build/orig/sdcc/src/pic14/gen.c:1907:assignResultValue *{*
                      01963 ;; ***  assignResultValue  1909
                      01964 ;;      line = 1911 result -=-, size=0, left AOP_REG=r0x1055, size=1, right -=-, size=0
                      01965 ;; >>> /home/sdcc-builder/build/sdcc-build/orig/sdcc/src/pic14/gen.c:1423:get_returnvalue
                      01966 ;; ***  popRegFromIdx,1042  , rIdx=0x7f
0194   08??           01967         MOVF    STK00,W
                      01968 ;; >>> /home/sdcc-builder/build/sdcc-build/orig/sdcc/src/pic14/gen.c:1393:movwf
                      01969 ;;      1109 rIdx = r0x1055 
0195   00??           01970         MOVWF   r0x1023
                      01971 ;;; /home/sdcc-builder/build/sdcc-build/orig/sdcc/src/pic14/gen.c:2316:resultRemat *{*
                      01972 ;;; /home/sdcc-builder/build/sdcc-build/orig/sdcc/src/pic14/gen.c:2316:resultRemat *{*
                      01973 ;; ***  genPlus  611
                      01974 ;;; /home/sdcc-builder/build/sdcc-build/orig/sdcc/src/pic14/genarith.c:612:genPlus *{*
                      01975 ;;      613
                      01976 ;;      aopForRemat 392
                      01977 ;;      418: rname _ssd_symbols, val 0, const = 0
                      01978 ;;      694 register type nRegs=1
                      01979 ;;      694 register type nRegs=2
                      01980 ;;      833: aopGet AOP_PCODE type PO_IMMEDIATE
                      01981 ;;      _ssd_symbols
                      01982 ;;      line = 618 result AOP_REG=r0x1054, size=2, left AOP_PCODE=_ssd_symbols, size=2, right AOP_REG=r0
                            x1054, size=1
                      01983 ;;; /home/sdcc-builder/build/sdcc-build/orig/sdcc/src/pic14/genarith.c:142:genPlusIncr *{*
                      01984 ;; ***  genPlusIncr  144
                      01985 ;;      result AOP_REG, left AOP_PCODE, right AOP_REG
gpasm-1.4.0 #1106 (Oct  6 2014) obj\Debug\ssd   1-13-2021  14:26:32         PAGE 39


LOC    OBJECT CODE    LINE  SOURCE TEXT
  VALUE

                      01986 ;; ***  genPlus  717
                      01987 ;;      833: aopGet AOP_PCODE type PO_IMMEDIATE
                      01988 ;;      _ssd_symbols
                      01989 ;; >>> /home/sdcc-builder/build/sdcc-build/orig/sdcc/src/pic14/genarith.c:726:genPlus
                      01990 ;;      1109 rIdx = r0x1054 
                      01991         .line   130; "ssd.c"    ssd_symbols[ssd] = symbol;
0196   08??           01992         MOVF    r0x1022,W
                      01993 ;; >>> /home/sdcc-builder/build/sdcc-build/orig/sdcc/src/pic14/genarith.c:735:genPlus
0197   3E??           01994         ADDLW   (_ssd_symbols + 0)
                      01995 ;; >>> /home/sdcc-builder/build/sdcc-build/orig/sdcc/src/pic14/genarith.c:736:genPlus
                      01996 ;;      1109 rIdx = r0x1054 
0198   00??           01997         MOVWF   r0x1022
                      01998 ;; >>> /home/sdcc-builder/build/sdcc-build/orig/sdcc/src/pic14/genarith.c:799:genPlus
0199   30??           01999         MOVLW   high (_ssd_symbols + 0)
                      02000 ;; >>> /home/sdcc-builder/build/sdcc-build/orig/sdcc/src/pic14/genarith.c:800:genPlus
019A   1803           02001         BTFSC   STATUS,0
                      02002 ;; >>> /home/sdcc-builder/build/sdcc-build/orig/sdcc/src/pic14/genarith.c:801:genPlus
019B   3E01           02003         ADDLW   0x01
                      02004 ;; >>> /home/sdcc-builder/build/sdcc-build/orig/sdcc/src/pic14/genarith.c:802:genPlus
                      02005 ;;      1109 rIdx = r0x1056 
019C   00??           02006         MOVWF   r0x1024
                      02007 ;;; /home/sdcc-builder/build/sdcc-build/orig/sdcc/src/pic14/gen.c:2316:resultRemat *{*
                      02008 ;;; /home/sdcc-builder/build/sdcc-build/orig/sdcc/src/pic14/gen.c:6686:genPointerSet *{*
                      02009 ;; ***  genPointerSet  6687
                      02010 ;;; /home/sdcc-builder/build/sdcc-build/orig/sdcc/src/pic14/gen.c:6505:genNearPointerSet *{*
                      02011 ;; ***  genNearPointerSet  6506
                      02012 ;;      694 register type nRegs=2
                      02013 ;; ***  genNearPointerSet  6521
                      02014 ;;      694 register type nRegs=1
                      02015 ;;      line = 6523 result AOP_REG=r0x1054, size=2, left -=-, size=0, right AOP_REG=r0x1055, size=1
                      02016 ;;; /home/sdcc-builder/build/sdcc-build/orig/sdcc/src/pic14/gen.c:1343:mov2w_op *{*
                      02017 ;; ***  mov2w  1381  offset=0
                      02018 ;; >>> /home/sdcc-builder/build/sdcc-build/orig/sdcc/src/pic14/gen.c:1386:mov2w
                      02019 ;;      1109 rIdx = r0x1054 
019D   08??           02020         MOVF    r0x1022,W
                      02021 ;; >>> /home/sdcc-builder/build/sdcc-build/orig/sdcc/src/pic14/gen.c:5602:setup_fsr
019E   1283 1303      02022         BANKSEL FSR
01A0   0084           02023         MOVWF   FSR
                      02024 ;;; /home/sdcc-builder/build/sdcc-build/orig/sdcc/src/pic14/gen.c:5553:SetIrp *{*
                      02025 ;; >>> /home/sdcc-builder/build/sdcc-build/orig/sdcc/src/pic14/gen.c:5580:SetIrp
01A1   1383           02026         BCF     STATUS,7
                      02027 ;; >>> /home/sdcc-builder/build/sdcc-build/orig/sdcc/src/pic14/gen.c:5583:SetIrp
01A2   ???? ????      02028         BANKSEL r0x1024
01A4   18??           02029         BTFSC   r0x1024,0
                      02030 ;; >>> /home/sdcc-builder/build/sdcc-build/orig/sdcc/src/pic14/gen.c:5584:SetIrp
01A5   1783           02031         BSF     STATUS,7
                      02032 ;; ***  genNearPointerSet  6548
                      02033 ;; >>> /home/sdcc-builder/build/sdcc-build/orig/sdcc/src/pic14/gen.c:6564:genNearPointerSet
                      02034 ;;      1109 rIdx = r0x1055 
01A6   08??           02035         MOVF    r0x1023,W
                      02036 ;; >>> /home/sdcc-builder/build/sdcc-build/orig/sdcc/src/pic14/gen.c:6569:genNearPointerSet
01A7   1283 1303      02037         BANKSEL INDF
01A9   0080           02038         MOVWF   INDF
gpasm-1.4.0 #1106 (Oct  6 2014) obj\Debug\ssd   1-13-2021  14:26:32         PAGE 40


LOC    OBJECT CODE    LINE  SOURCE TEXT
  VALUE

                      02039 ;; ***  genNearPointerSet  6577
                      02040 ;; ***  genNearPointerSet  6603
                      02041 ;;; /home/sdcc-builder/build/sdcc-build/orig/sdcc/src/pic14/gen.c:2316:resultRemat *{*
                      02042 ;;; /home/sdcc-builder/build/sdcc-build/orig/sdcc/src/pic14/gen.c:2760:genLabel *{*
                      02043 ;; ***  genLabel  2763
                      02044 ;;; /home/sdcc-builder/build/sdcc-build/orig/sdcc/src/pic14/gen.c:2316:resultRemat *{*
                      02045 ;;; /home/sdcc-builder/build/sdcc-build/orig/sdcc/src/pic14/gen.c:2528:genEndFunction *{*
                      02046 ;; ***  genEndFunction  2530
01AA   0008           02047         RETURN  
                      02048 ; exit point of _SSD_SetSymbol
                      02049 ;;; /home/sdcc-builder/build/sdcc-build/orig/sdcc/src/pic14/gen.c:7426:genpic14Code *{*
                      02050 
                      02051 ;***
                      02052 ;  pBlock Stats: dbName = C
                      02053 ;***
                      02054 ;entry:  _SSD_SetMode   ;Function start
                      02055 ; 2 exit points
                      02056 ;has an exit
                      02057 ;; Starting pCode block
                      02058 ;;; /home/sdcc-builder/build/sdcc-build/orig/sdcc/src/pic14/gen.c:2316:resultRemat *{*
                      02059 ;;; /home/sdcc-builder/build/sdcc-build/orig/sdcc/src/pic14/gen.c:2760:genLabel *{*
                      02060 ;; ***  genLabel  2763
                      02061 ;;; /home/sdcc-builder/build/sdcc-build/orig/sdcc/src/pic14/gen.c:2316:resultRemat *{*
                      02062 ;;; /home/sdcc-builder/build/sdcc-build/orig/sdcc/src/pic14/gen.c:2340:genFunction *{*
                      02063 ;; ***  genFunction  2342 curr label offset=52previous max_key=0 
01AB                  02064 _SSD_SetMode    ;Function start
                      02065 ; 2 exit points
                      02066 ;;; /home/sdcc-builder/build/sdcc-build/orig/sdcc/src/pic14/gen.c:2316:resultRemat *{*
                      02067 ;;; /home/sdcc-builder/build/sdcc-build/orig/sdcc/src/pic14/gen.c:7358:genReceive *{*
                      02068 ;; ***  genReceive  7359
                      02069 ;; ***  aopForSym 315
                      02070 ;;      327 sym->rname = _current_mode, size = 1
                      02071 ;;; /home/sdcc-builder/build/sdcc-build/orig/sdcc/src/pic14/gen.c:1907:assignResultValue *{*
                      02072 ;; ***  assignResultValue  1909
                      02073 ;;      line = 1911 result -=-, size=0, left AOP_DIR=_current_mode, size=1, right -=-, size=0
                      02074 ;; >>> /home/sdcc-builder/build/sdcc-build/orig/sdcc/src/pic14/gen.c:1393:movwf
                      02075 ;;      1009
                      02076 ;;      1028  _current_mode   offset=0
                      02077         .line   122; "ssd.c"    void SSD_SetMode(Mode mode){
01AB   ???? ????      02078         BANKSEL _current_mode
01AD   00??           02079         MOVWF   _current_mode
                      02080 ;;; /home/sdcc-builder/build/sdcc-build/orig/sdcc/src/pic14/gen.c:2316:resultRemat *{*
                      02081 ;;; /home/sdcc-builder/build/sdcc-build/orig/sdcc/src/pic14/gen.c:2760:genLabel *{*
                      02082 ;; ***  genLabel  2763
                      02083 ;;; /home/sdcc-builder/build/sdcc-build/orig/sdcc/src/pic14/gen.c:2316:resultRemat *{*
                      02084 ;;; /home/sdcc-builder/build/sdcc-build/orig/sdcc/src/pic14/gen.c:2528:genEndFunction *{*
                      02085 ;; ***  genEndFunction  2530
                      02086         .line   124; "ssd.c"    current_mode=mode;
01AE   0008           02087         RETURN  
                      02088 ; exit point of _SSD_SetMode
                      02089 ;;; /home/sdcc-builder/build/sdcc-build/orig/sdcc/src/pic14/gen.c:7426:genpic14Code *{*
                      02090 
                      02091 ;***
gpasm-1.4.0 #1106 (Oct  6 2014) obj\Debug\ssd   1-13-2021  14:26:32         PAGE 41


LOC    OBJECT CODE    LINE  SOURCE TEXT
  VALUE

                      02092 ;  pBlock Stats: dbName = C
                      02093 ;***
                      02094 ;entry:  _SSD_getCurrentSSD     ;Function start
                      02095 ; 2 exit points
                      02096 ;has an exit
                      02097 ;; Starting pCode block
                      02098 ;;; /home/sdcc-builder/build/sdcc-build/orig/sdcc/src/pic14/gen.c:2316:resultRemat *{*
                      02099 ;;; /home/sdcc-builder/build/sdcc-build/orig/sdcc/src/pic14/gen.c:2760:genLabel *{*
                      02100 ;; ***  genLabel  2763
                      02101 ;;; /home/sdcc-builder/build/sdcc-build/orig/sdcc/src/pic14/gen.c:2316:resultRemat *{*
                      02102 ;;; /home/sdcc-builder/build/sdcc-build/orig/sdcc/src/pic14/gen.c:2340:genFunction *{*
                      02103 ;; ***  genFunction  2342 curr label offset=21previous max_key=27 
01AF                  02104 _SSD_getCurrentSSD      ;Function start
                      02105 ; 2 exit points
                      02106 ;;; /home/sdcc-builder/build/sdcc-build/orig/sdcc/src/pic14/gen.c:2316:resultRemat *{*
                      02107 ;;; /home/sdcc-builder/build/sdcc-build/orig/sdcc/src/pic14/gen.c:2683:genRet *{*
                      02108 ;; ***  genRet  2685
                      02109 ;; ***  aopForSym 315
                      02110 ;;      327 sym->rname = _current_ssd, size = 1
                      02111 ;;; /home/sdcc-builder/build/sdcc-build/orig/sdcc/src/pic14/gen.c:1343:mov2w_op *{*
                      02112 ;; ***  mov2w  1381  offset=0
                      02113 ;; >>> /home/sdcc-builder/build/sdcc-build/orig/sdcc/src/pic14/gen.c:1386:mov2w
                      02114 ;;      1009
                      02115 ;;      1028  _current_ssd   offset=0
                      02116         .line   118; "ssd.c"    return current_ssd;
01AF   ???? ????      02117         BANKSEL _current_ssd
01B1   08??           02118         MOVF    _current_ssd,W
                      02119 ;;; /home/sdcc-builder/build/sdcc-build/orig/sdcc/src/pic14/gen.c:2316:resultRemat *{*
                      02120 ;;; /home/sdcc-builder/build/sdcc-build/orig/sdcc/src/pic14/gen.c:2760:genLabel *{*
                      02121 ;; ***  genLabel  2763
                      02122 ;;; /home/sdcc-builder/build/sdcc-build/orig/sdcc/src/pic14/gen.c:2316:resultRemat *{*
                      02123 ;;; /home/sdcc-builder/build/sdcc-build/orig/sdcc/src/pic14/gen.c:2528:genEndFunction *{*
                      02124 ;; ***  genEndFunction  2530
01B2   0008           02125         RETURN  
                      02126 ; exit point of _SSD_getCurrentSSD
                      02127 ;;; /home/sdcc-builder/build/sdcc-build/orig/sdcc/src/pic14/gen.c:7426:genpic14Code *{*
                      02128 
                      02129 ;***
                      02130 ;  pBlock Stats: dbName = C
                      02131 ;***
                      02132 ;entry:  _SSD_Update    ;Function start
                      02133 ; 2 exit points
                      02134 ;has an exit
                      02135 ;functions called:
                      02136 ;   _SSD_SetState
                      02137 ;   _SSD_SetState
                      02138 ;   _SSD_SetState
                      02139 ;   _SSD_SetState
                      02140 ;   _SSD_SetState
                      02141 ;   _SSD_DisplayToggle
                      02142 ;   _SSD_DisplayToggle
                      02143 ;   _SSD_SetState
                      02144 ;   _SSD_SetState
gpasm-1.4.0 #1106 (Oct  6 2014) obj\Debug\ssd   1-13-2021  14:26:32         PAGE 42


LOC    OBJECT CODE    LINE  SOURCE TEXT
  VALUE

                      02145 ;   _SSD_SetState
                      02146 ;   _SSD_SetState
                      02147 ;   _SSD_SetState
                      02148 ;   _SSD_DisplayToggle
                      02149 ;   _SSD_DisplayToggle
                      02150 ;4 compiler assigned registers:
                      02151 ;   STK00
                      02152 ;   r0x1025
                      02153 ;   r0x1026
                      02154 ;   r0x1027
                      02155 ;; Starting pCode block
                      02156 ;;; /home/sdcc-builder/build/sdcc-build/orig/sdcc/src/pic14/gen.c:2316:resultRemat *{*
                      02157 ;;; /home/sdcc-builder/build/sdcc-build/orig/sdcc/src/pic14/gen.c:2760:genLabel *{*
                      02158 ;; ***  genLabel  2763
                      02159 ;;; /home/sdcc-builder/build/sdcc-build/orig/sdcc/src/pic14/gen.c:2316:resultRemat *{*
                      02160 ;;; /home/sdcc-builder/build/sdcc-build/orig/sdcc/src/pic14/gen.c:2340:genFunction *{*
                      02161 ;; ***  genFunction  2342 curr label offset=4previous max_key=13 
01B3                  02162 _SSD_Update     ;Function start
                      02163 ; 2 exit points
                      02164 ;;; /home/sdcc-builder/build/sdcc-build/orig/sdcc/src/pic14/gen.c:2316:resultRemat *{*
                      02165 ;;; /home/sdcc-builder/build/sdcc-build/orig/sdcc/src/pic14/gen.c:2316:resultRemat *{*
                      02166 ;;; /home/sdcc-builder/build/sdcc-build/orig/sdcc/src/pic14/gen.c:2316:resultRemat *{*
                      02167 ;;; /home/sdcc-builder/build/sdcc-build/orig/sdcc/src/pic14/gen.c:2086:genCall *{*
                      02168 ;; ***  genCall  2088
                      02169 ;;; /home/sdcc-builder/build/sdcc-build/orig/sdcc/src/pic14/gen.c:1801:saveRegisters *{*
                      02170 ;; ***  saveRegisters  1803
                      02171 ;;      2135 left AOP_LIT
                      02172 ;;; /home/sdcc-builder/build/sdcc-build/orig/sdcc/src/pic14/gen.c:1343:mov2w_op *{*
                      02173 ;; >>> /home/sdcc-builder/build/sdcc-build/orig/sdcc/src/pic14/gen.c:1361:mov2w_op
                      02174         .line   75; "ssd.c"     SSD_SetState(SSD_L, SSD_OFF);
01B3   3000           02175         MOVLW   0x00
                      02176 ;;      2135 left AOP_LIT
                      02177 ;; >>> /home/sdcc-builder/build/sdcc-build/orig/sdcc/src/pic14/gen.c:2143:genCall
                      02178 ;; ***  popRegFromIdx,1042  , rIdx=0x7f
01B4   00??           02179         MOVWF   STK00
                      02180 ;;; /home/sdcc-builder/build/sdcc-build/orig/sdcc/src/pic14/gen.c:1343:mov2w_op *{*
                      02181 ;; >>> /home/sdcc-builder/build/sdcc-build/orig/sdcc/src/pic14/gen.c:1361:mov2w_op
01B5   3000           02182         MOVLW   0x00
                      02183 ;; >>> /home/sdcc-builder/build/sdcc-build/orig/sdcc/src/pic14/gen.c:2173:genCall
01B6   ???? ????      02184         PAGESEL _SSD_SetState
                      02185 ;; >>> /home/sdcc-builder/build/sdcc-build/orig/sdcc/src/pic14/gen.c:2175:genCall
01B8   2???           02186         CALL    _SSD_SetState
                      02187 ;; >>> /home/sdcc-builder/build/sdcc-build/orig/sdcc/src/pic14/gen.c:2181:genCall
01B9   ???? ????      02188         PAGESEL $
                      02189 ;;; /home/sdcc-builder/build/sdcc-build/orig/sdcc/src/pic14/gen.c:1845:unsaveRegisters *{*
                      02190 ;; ***  unsaveRegisters  1847
                      02191 ;;; /home/sdcc-builder/build/sdcc-build/orig/sdcc/src/pic14/gen.c:2316:resultRemat *{*
                      02192 ;;; /home/sdcc-builder/build/sdcc-build/orig/sdcc/src/pic14/gen.c:2316:resultRemat *{*
                      02193 ;;; /home/sdcc-builder/build/sdcc-build/orig/sdcc/src/pic14/gen.c:2316:resultRemat *{*
                      02194 ;;; /home/sdcc-builder/build/sdcc-build/orig/sdcc/src/pic14/gen.c:2086:genCall *{*
                      02195 ;; ***  genCall  2088
                      02196 ;;; /home/sdcc-builder/build/sdcc-build/orig/sdcc/src/pic14/gen.c:1801:saveRegisters *{*
                      02197 ;; ***  saveRegisters  1803
gpasm-1.4.0 #1106 (Oct  6 2014) obj\Debug\ssd   1-13-2021  14:26:32         PAGE 43


LOC    OBJECT CODE    LINE  SOURCE TEXT
  VALUE

                      02198 ;;      2135 left AOP_LIT
                      02199 ;;; /home/sdcc-builder/build/sdcc-build/orig/sdcc/src/pic14/gen.c:1343:mov2w_op *{*
                      02200 ;; >>> /home/sdcc-builder/build/sdcc-build/orig/sdcc/src/pic14/gen.c:1361:mov2w_op
                      02201         .line   76; "ssd.c"     SSD_SetState(SSD_M, SSD_OFF);
01BB   3000           02202         MOVLW   0x00
                      02203 ;;      2135 left AOP_LIT
                      02204 ;; >>> /home/sdcc-builder/build/sdcc-build/orig/sdcc/src/pic14/gen.c:2143:genCall
                      02205 ;; ***  popRegFromIdx,1042  , rIdx=0x7f
01BC   00??           02206         MOVWF   STK00
                      02207 ;;; /home/sdcc-builder/build/sdcc-build/orig/sdcc/src/pic14/gen.c:1343:mov2w_op *{*
                      02208 ;; >>> /home/sdcc-builder/build/sdcc-build/orig/sdcc/src/pic14/gen.c:1361:mov2w_op
01BD   3001           02209         MOVLW   0x01
                      02210 ;; >>> /home/sdcc-builder/build/sdcc-build/orig/sdcc/src/pic14/gen.c:2173:genCall
01BE   ???? ????      02211         PAGESEL _SSD_SetState
                      02212 ;; >>> /home/sdcc-builder/build/sdcc-build/orig/sdcc/src/pic14/gen.c:2175:genCall
01C0   2???           02213         CALL    _SSD_SetState
                      02214 ;; >>> /home/sdcc-builder/build/sdcc-build/orig/sdcc/src/pic14/gen.c:2181:genCall
01C1   ???? ????      02215         PAGESEL $
                      02216 ;;; /home/sdcc-builder/build/sdcc-build/orig/sdcc/src/pic14/gen.c:1845:unsaveRegisters *{*
                      02217 ;; ***  unsaveRegisters  1847
                      02218 ;;; /home/sdcc-builder/build/sdcc-build/orig/sdcc/src/pic14/gen.c:2316:resultRemat *{*
                      02219 ;;; /home/sdcc-builder/build/sdcc-build/orig/sdcc/src/pic14/gen.c:2316:resultRemat *{*
                      02220 ;;; /home/sdcc-builder/build/sdcc-build/orig/sdcc/src/pic14/gen.c:2316:resultRemat *{*
                      02221 ;;; /home/sdcc-builder/build/sdcc-build/orig/sdcc/src/pic14/gen.c:2086:genCall *{*
                      02222 ;; ***  genCall  2088
                      02223 ;;; /home/sdcc-builder/build/sdcc-build/orig/sdcc/src/pic14/gen.c:1801:saveRegisters *{*
                      02224 ;; ***  saveRegisters  1803
                      02225 ;;      2135 left AOP_LIT
                      02226 ;;; /home/sdcc-builder/build/sdcc-build/orig/sdcc/src/pic14/gen.c:1343:mov2w_op *{*
                      02227 ;; >>> /home/sdcc-builder/build/sdcc-build/orig/sdcc/src/pic14/gen.c:1361:mov2w_op
                      02228         .line   77; "ssd.c"     SSD_SetState(SSD_N, SSD_OFF);
01C3   3000           02229         MOVLW   0x00
                      02230 ;;      2135 left AOP_LIT
                      02231 ;; >>> /home/sdcc-builder/build/sdcc-build/orig/sdcc/src/pic14/gen.c:2143:genCall
                      02232 ;; ***  popRegFromIdx,1042  , rIdx=0x7f
01C4   00??           02233         MOVWF   STK00
                      02234 ;;; /home/sdcc-builder/build/sdcc-build/orig/sdcc/src/pic14/gen.c:1343:mov2w_op *{*
                      02235 ;; >>> /home/sdcc-builder/build/sdcc-build/orig/sdcc/src/pic14/gen.c:1361:mov2w_op
01C5   3002           02236         MOVLW   0x02
                      02237 ;; >>> /home/sdcc-builder/build/sdcc-build/orig/sdcc/src/pic14/gen.c:2173:genCall
01C6   ???? ????      02238         PAGESEL _SSD_SetState
                      02239 ;; >>> /home/sdcc-builder/build/sdcc-build/orig/sdcc/src/pic14/gen.c:2175:genCall
01C8   2???           02240         CALL    _SSD_SetState
                      02241 ;; >>> /home/sdcc-builder/build/sdcc-build/orig/sdcc/src/pic14/gen.c:2181:genCall
01C9   ???? ????      02242         PAGESEL $
                      02243 ;;; /home/sdcc-builder/build/sdcc-build/orig/sdcc/src/pic14/gen.c:1845:unsaveRegisters *{*
                      02244 ;; ***  unsaveRegisters  1847
                      02245 ;;; /home/sdcc-builder/build/sdcc-build/orig/sdcc/src/pic14/gen.c:2316:resultRemat *{*
                      02246 ;;; /home/sdcc-builder/build/sdcc-build/orig/sdcc/src/pic14/gen.c:2316:resultRemat *{*
                      02247 ;;; /home/sdcc-builder/build/sdcc-build/orig/sdcc/src/pic14/gen.c:2316:resultRemat *{*
                      02248 ;;; /home/sdcc-builder/build/sdcc-build/orig/sdcc/src/pic14/gen.c:2086:genCall *{*
                      02249 ;; ***  genCall  2088
                      02250 ;;; /home/sdcc-builder/build/sdcc-build/orig/sdcc/src/pic14/gen.c:1801:saveRegisters *{*
gpasm-1.4.0 #1106 (Oct  6 2014) obj\Debug\ssd   1-13-2021  14:26:32         PAGE 44


LOC    OBJECT CODE    LINE  SOURCE TEXT
  VALUE

                      02251 ;; ***  saveRegisters  1803
                      02252 ;;      2135 left AOP_LIT
                      02253 ;;; /home/sdcc-builder/build/sdcc-build/orig/sdcc/src/pic14/gen.c:1343:mov2w_op *{*
                      02254 ;; >>> /home/sdcc-builder/build/sdcc-build/orig/sdcc/src/pic14/gen.c:1361:mov2w_op
                      02255         .line   78; "ssd.c"     SSD_SetState(SSD_R, SSD_OFF);
01CB   3000           02256         MOVLW   0x00
                      02257 ;;      2135 left AOP_LIT
                      02258 ;; >>> /home/sdcc-builder/build/sdcc-build/orig/sdcc/src/pic14/gen.c:2143:genCall
                      02259 ;; ***  popRegFromIdx,1042  , rIdx=0x7f
01CC   00??           02260         MOVWF   STK00
                      02261 ;;; /home/sdcc-builder/build/sdcc-build/orig/sdcc/src/pic14/gen.c:1343:mov2w_op *{*
                      02262 ;; >>> /home/sdcc-builder/build/sdcc-build/orig/sdcc/src/pic14/gen.c:1361:mov2w_op
01CD   3003           02263         MOVLW   0x03
                      02264 ;; >>> /home/sdcc-builder/build/sdcc-build/orig/sdcc/src/pic14/gen.c:2173:genCall
01CE   ???? ????      02265         PAGESEL _SSD_SetState
                      02266 ;; >>> /home/sdcc-builder/build/sdcc-build/orig/sdcc/src/pic14/gen.c:2175:genCall
01D0   2???           02267         CALL    _SSD_SetState
                      02268 ;; >>> /home/sdcc-builder/build/sdcc-build/orig/sdcc/src/pic14/gen.c:2181:genCall
01D1   ???? ????      02269         PAGESEL $
                      02270 ;;; /home/sdcc-builder/build/sdcc-build/orig/sdcc/src/pic14/gen.c:1845:unsaveRegisters *{*
                      02271 ;; ***  unsaveRegisters  1847
                      02272 ;;; /home/sdcc-builder/build/sdcc-build/orig/sdcc/src/pic14/gen.c:2316:resultRemat *{*
                      02273 ;;; /home/sdcc-builder/build/sdcc-build/orig/sdcc/src/pic14/gen.c:2316:resultRemat *{*
                      02274 ;;; /home/sdcc-builder/build/sdcc-build/orig/sdcc/src/pic14/gen.c:2316:resultRemat *{*
                      02275 ;; ***  genPlus  611
                      02276 ;;; /home/sdcc-builder/build/sdcc-build/orig/sdcc/src/pic14/genarith.c:612:genPlus *{*
                      02277 ;;      613
                      02278 ;;      aopForRemat 392
                      02279 ;;      418: rname _ssd_symbols, val 0, const = 0
                      02280 ;; ***  aopForSym 315
                      02281 ;;      327 sym->rname = _current_ssd, size = 1
                      02282 ;;      694 register type nRegs=2
                      02283 ;;      833: aopGet AOP_PCODE type PO_IMMEDIATE
                      02284 ;;      _ssd_symbols
                      02285 ;;      line = 618 result AOP_REG=r0x104E, size=2, left AOP_PCODE=_ssd_symbols, size=2, right AOP_DIR=_c
                            urrent_ssd, size=1
                      02286 ;;; /home/sdcc-builder/build/sdcc-build/orig/sdcc/src/pic14/genarith.c:142:genPlusIncr *{*
                      02287 ;; ***  genPlusIncr  144
                      02288 ;;      result AOP_REG, left AOP_PCODE, right AOP_DIR
                      02289 ;; ***  genPlus  717
                      02290 ;;      833: aopGet AOP_PCODE type PO_IMMEDIATE
                      02291 ;;      _ssd_symbols
                      02292 ;; >>> /home/sdcc-builder/build/sdcc-build/orig/sdcc/src/pic14/genarith.c:726:genPlus
                      02293 ;;      1009
                      02294 ;;      1028  _current_ssd   offset=0
                      02295         .line   82; "ssd.c"     data=ssd_data[ssd_symbols[current_ssd]];
01D3   ???? ????      02296         BANKSEL _current_ssd
01D5   08??           02297         MOVF    _current_ssd,W
                      02298 ;; >>> /home/sdcc-builder/build/sdcc-build/orig/sdcc/src/pic14/genarith.c:735:genPlus
01D6   3E??           02299         ADDLW   (_ssd_symbols + 0)
                      02300 ;; >>> /home/sdcc-builder/build/sdcc-build/orig/sdcc/src/pic14/genarith.c:736:genPlus
                      02301 ;;      1109 rIdx = r0x104E 
01D7   ???? ????      02302         BANKSEL r0x1025
gpasm-1.4.0 #1106 (Oct  6 2014) obj\Debug\ssd   1-13-2021  14:26:32         PAGE 45


LOC    OBJECT CODE    LINE  SOURCE TEXT
  VALUE

01D9   00??           02303         MOVWF   r0x1025
                      02304 ;; >>> /home/sdcc-builder/build/sdcc-build/orig/sdcc/src/pic14/genarith.c:799:genPlus
01DA   30??           02305         MOVLW   high (_ssd_symbols + 0)
                      02306 ;; >>> /home/sdcc-builder/build/sdcc-build/orig/sdcc/src/pic14/genarith.c:800:genPlus
01DB   1803           02307         BTFSC   STATUS,0
                      02308 ;; >>> /home/sdcc-builder/build/sdcc-build/orig/sdcc/src/pic14/genarith.c:801:genPlus
01DC   3E01           02309         ADDLW   0x01
                      02310 ;; >>> /home/sdcc-builder/build/sdcc-build/orig/sdcc/src/pic14/genarith.c:802:genPlus
                      02311 ;;      1109 rIdx = r0x104F 
01DD   00??           02312         MOVWF   r0x1026
                      02313 ;;; /home/sdcc-builder/build/sdcc-build/orig/sdcc/src/pic14/gen.c:2316:resultRemat *{*
                      02314 ;;; /home/sdcc-builder/build/sdcc-build/orig/sdcc/src/pic14/gen.c:6162:genPointerGet *{*
                      02315 ;; ***  genPointerGet  6163
                      02316 ;;; /home/sdcc-builder/build/sdcc-build/orig/sdcc/src/pic14/gen.c:5944:genNearPointerGet *{*
                      02317 ;; ***  genNearPointerGet  5945
                      02318 ;;      694 register type nRegs=2
                      02319 ;; ***  genNearPointerGet  5961
                      02320 ;;      694 register type nRegs=1
                      02321 ;;; /home/sdcc-builder/build/sdcc-build/orig/sdcc/src/pic14/gen.c:1343:mov2w_op *{*
                      02322 ;; ***  mov2w  1381  offset=0
                      02323 ;; >>> /home/sdcc-builder/build/sdcc-build/orig/sdcc/src/pic14/gen.c:1386:mov2w
                      02324 ;;      1109 rIdx = r0x104E 
01DE   08??           02325         MOVF    r0x1025,W
                      02326 ;; >>> /home/sdcc-builder/build/sdcc-build/orig/sdcc/src/pic14/gen.c:5602:setup_fsr
01DF   1283 1303      02327         BANKSEL FSR
01E1   0084           02328         MOVWF   FSR
                      02329 ;;; /home/sdcc-builder/build/sdcc-build/orig/sdcc/src/pic14/gen.c:5553:SetIrp *{*
                      02330 ;; >>> /home/sdcc-builder/build/sdcc-build/orig/sdcc/src/pic14/gen.c:5580:SetIrp
01E2   1383           02331         BCF     STATUS,7
                      02332 ;; >>> /home/sdcc-builder/build/sdcc-build/orig/sdcc/src/pic14/gen.c:5583:SetIrp
01E3   ???? ????      02333         BANKSEL r0x1026
01E5   18??           02334         BTFSC   r0x1026,0
                      02335 ;; >>> /home/sdcc-builder/build/sdcc-build/orig/sdcc/src/pic14/gen.c:5584:SetIrp
01E6   1783           02336         BSF     STATUS,7
                      02337 ;; ***  genNearPointerGet  5988
                      02338 ;; >>> /home/sdcc-builder/build/sdcc-build/orig/sdcc/src/pic14/gen.c:5995:genNearPointerGet
01E7   1283 1303      02339         BANKSEL INDF
01E9   0800           02340         MOVF    INDF,W
                      02341 ;; >>> /home/sdcc-builder/build/sdcc-build/orig/sdcc/src/pic14/gen.c:6002:genNearPointerGet
                      02342 ;;      1109 rIdx = r0x1050 
01EA   ???? ????      02343         BANKSEL r0x1027
01EC   00??           02344         MOVWF   r0x1027
01ED   3E??           02345         ADDLW   (_ssd_data + 0)
                      02346 ;; >>> /home/sdcc-builder/build/sdcc-build/orig/sdcc/src/pic14/genarith.c:736:genPlus
                      02347 ;;      1109 rIdx = r0x104E 
01EE   00??           02348         MOVWF   r0x1025
                      02349 ;; >>> /home/sdcc-builder/build/sdcc-build/orig/sdcc/src/pic14/genarith.c:799:genPlus
01EF   30??           02350         MOVLW   high (_ssd_data + 0)
                      02351 ;; >>> /home/sdcc-builder/build/sdcc-build/orig/sdcc/src/pic14/genarith.c:800:genPlus
01F0   1803           02352         BTFSC   STATUS,0
                      02353 ;; >>> /home/sdcc-builder/build/sdcc-build/orig/sdcc/src/pic14/genarith.c:801:genPlus
01F1   3E01           02354         ADDLW   0x01
                      02355 ;; >>> /home/sdcc-builder/build/sdcc-build/orig/sdcc/src/pic14/genarith.c:802:genPlus
gpasm-1.4.0 #1106 (Oct  6 2014) obj\Debug\ssd   1-13-2021  14:26:32         PAGE 46


LOC    OBJECT CODE    LINE  SOURCE TEXT
  VALUE

                      02356 ;;      1109 rIdx = r0x104F 
01F2   00??           02357         MOVWF   r0x1026
                      02358 ;;; /home/sdcc-builder/build/sdcc-build/orig/sdcc/src/pic14/gen.c:2316:resultRemat *{*
                      02359 ;;; /home/sdcc-builder/build/sdcc-build/orig/sdcc/src/pic14/gen.c:6162:genPointerGet *{*
                      02360 ;; ***  genPointerGet  6163
                      02361 ;;; /home/sdcc-builder/build/sdcc-build/orig/sdcc/src/pic14/gen.c:5944:genNearPointerGet *{*
                      02362 ;; ***  genNearPointerGet  5945
                      02363 ;;      694 register type nRegs=2
                      02364 ;; ***  genNearPointerGet  5961
                      02365 ;;      694 register type nRegs=1
                      02366 ;;; /home/sdcc-builder/build/sdcc-build/orig/sdcc/src/pic14/gen.c:1343:mov2w_op *{*
                      02367 ;; ***  mov2w  1381  offset=0
                      02368 ;; >>> /home/sdcc-builder/build/sdcc-build/orig/sdcc/src/pic14/gen.c:1386:mov2w
                      02369 ;;      1109 rIdx = r0x104E 
01F3   08??           02370         MOVF    r0x1025,W
                      02371 ;; >>> /home/sdcc-builder/build/sdcc-build/orig/sdcc/src/pic14/gen.c:5602:setup_fsr
01F4   1283 1303      02372         BANKSEL FSR
01F6   0084           02373         MOVWF   FSR
                      02374 ;;; /home/sdcc-builder/build/sdcc-build/orig/sdcc/src/pic14/gen.c:5553:SetIrp *{*
                      02375 ;; >>> /home/sdcc-builder/build/sdcc-build/orig/sdcc/src/pic14/gen.c:5580:SetIrp
01F7   1383           02376         BCF     STATUS,7
                      02377 ;; >>> /home/sdcc-builder/build/sdcc-build/orig/sdcc/src/pic14/gen.c:5583:SetIrp
01F8   ???? ????      02378         BANKSEL r0x1026
01FA   18??           02379         BTFSC   r0x1026,0
                      02380 ;; >>> /home/sdcc-builder/build/sdcc-build/orig/sdcc/src/pic14/gen.c:5584:SetIrp
01FB   1783           02381         BSF     STATUS,7
                      02382 ;; ***  genNearPointerGet  5988
                      02383 ;; >>> /home/sdcc-builder/build/sdcc-build/orig/sdcc/src/pic14/gen.c:5995:genNearPointerGet
01FC   1283 1303      02384         BANKSEL INDF
01FE   0800           02385         MOVF    INDF,W
                      02386 ;; >>> /home/sdcc-builder/build/sdcc-build/orig/sdcc/src/pic14/gen.c:6002:genNearPointerGet
                      02387 ;;      1109 rIdx = r0x1050 
01FF   ???? ????      02388         BANKSEL r0x1027
0201   00??           02389         MOVWF   r0x1027
                      02390 ;;; /home/sdcc-builder/build/sdcc-build/orig/sdcc/src/pic14/gen.c:2316:resultRemat *{*
                      02391 ;;; /home/sdcc-builder/build/sdcc-build/orig/sdcc/src/pic14/gen.c:3619:genCmpEq *{*
                      02392 ;; ***  genCmpEq  3620
                      02393 ;; ifx is non-null
                      02394 ;; ***  aopForSym 315
                      02395 ;;      327 sym->rname = _current_ssd, size = 1
                      02396 ;;      line = 3631 result AOP_CRY=0x00, size=0, left AOP_DIR=_current_ssd, size=1, right AOP_LIT=0x03, 
                            size=1
                      02397 ;; ***  mov2w  1381  offset=0
                      02398 ;; >>> /home/sdcc-builder/build/sdcc-build/orig/sdcc/src/pic14/gen.c:1386:mov2w
                      02399 ;;      1009
                      02400 ;;      1028  _current_ssd   offset=0
                      02401         .line   83; "ssd.c"     if(current_ssd==SSD_R && led==LED_ON){
0202   ???? ????      02402         BANKSEL _current_ssd
0204   08??           02403         MOVF    _current_ssd,W
                      02404 ;; >>> /home/sdcc-builder/build/sdcc-build/orig/sdcc/src/pic14/gen.c:3685:genCmpEq
0205   3A03           02405         XORLW   0x03
                      02406 ;; >>> /home/sdcc-builder/build/sdcc-build/orig/sdcc/src/pic14/gen.c:3687:genCmpEq
0206   1D03           02407         BTFSS   STATUS,2
gpasm-1.4.0 #1106 (Oct  6 2014) obj\Debug\ssd   1-13-2021  14:26:32         PAGE 47


LOC    OBJECT CODE    LINE  SOURCE TEXT
  VALUE

                      02408 ;; >>> /home/sdcc-builder/build/sdcc-build/orig/sdcc/src/pic14/gen.c:3690:genCmpEq
                      02409 ;; ***  popGetLabel  key=2, label offset 21
0207   2???           02410         GOTO    _00123_DS_
                      02411 ;;; /home/sdcc-builder/build/sdcc-build/orig/sdcc/src/pic14/gen.c:2316:resultRemat *{*
                      02412 ;;; /home/sdcc-builder/build/sdcc-build/orig/sdcc/src/pic14/gen.c:2316:resultRemat *{*
                      02413 ;;; /home/sdcc-builder/build/sdcc-build/orig/sdcc/src/pic14/gen.c:3619:genCmpEq *{*
                      02414 ;; ***  genCmpEq  3620
                      02415 ;; ifx is non-null
                      02416 ;; ***  aopForSym 315
                      02417 ;;      327 sym->rname = _led, size = 1
                      02418 ;;      line = 3631 result AOP_CRY=0x00, size=0, left AOP_DIR=_led, size=1, right AOP_LIT=0x01, size=1
                      02419 ;; ***  mov2w  1381  offset=0
                      02420 ;; >>> /home/sdcc-builder/build/sdcc-build/orig/sdcc/src/pic14/gen.c:1386:mov2w
                      02421 ;;      1009
                      02422 ;;      1024  _led   offset=0 - had to alloc by reg name
0208   ???? ????      02423         BANKSEL _led
020A   08??           02424         MOVF    _led,W
                      02425 ;; >>> /home/sdcc-builder/build/sdcc-build/orig/sdcc/src/pic14/gen.c:3685:genCmpEq
020B   3A01           02426         XORLW   0x01
                      02427 ;; >>> /home/sdcc-builder/build/sdcc-build/orig/sdcc/src/pic14/gen.c:3687:genCmpEq
020C   1D03           02428         BTFSS   STATUS,2
                      02429 ;; >>> /home/sdcc-builder/build/sdcc-build/orig/sdcc/src/pic14/gen.c:3690:genCmpEq
                      02430 ;; ***  popGetLabel  key=2, label offset 21
020D   2???           02431         GOTO    _00123_DS_
                      02432 ;;; /home/sdcc-builder/build/sdcc-build/orig/sdcc/src/pic14/gen.c:2316:resultRemat *{*
                      02433 ;;; /home/sdcc-builder/build/sdcc-build/orig/sdcc/src/pic14/gen.c:2316:resultRemat *{*
                      02434 ;; ***  genPlus  611
                      02435 ;;; /home/sdcc-builder/build/sdcc-build/orig/sdcc/src/pic14/genarith.c:612:genPlus *{*
                      02436 ;;      694 register type nRegs=1
                      02437 ;;      575
                      02438 ;;      line = 618 result AOP_REG=r0x1050, size=1, left AOP_REG=r0x1050, size=1, right AOP_LIT=0x80, siz
                            e=1
                      02439 ;;; /home/sdcc-builder/build/sdcc-build/orig/sdcc/src/pic14/genarith.c:142:genPlusIncr *{*
                      02440 ;; ***  genPlusIncr  144
                      02441 ;;      result AOP_REG, left AOP_REG, right AOP_LIT
                      02442 ;;      genPlusIncr  156
                      02443 ;;      adding lit to something. size 1
                      02444 ;;; /home/sdcc-builder/build/sdcc-build/orig/sdcc/src/pic14/genarith.c:269:genAddLit *{*
                      02445 ;; ***  genAddLit  270
                      02446 ;;; /home/sdcc-builder/build/sdcc-build/orig/sdcc/src/pic14/genarith.c:233:genAddLit2byte *{*
                      02447 ;; >>> /home/sdcc-builder/build/sdcc-build/orig/sdcc/src/pic14/genarith.c:245:genAddLit2byte
                      02448         .line   84; "ssd.c"     data+=0b10000000;
020E   3080           02449         MOVLW   0x80
                      02450 ;; >>> /home/sdcc-builder/build/sdcc-build/orig/sdcc/src/pic14/genarith.c:246:genAddLit2byte
                      02451 ;;      1109 rIdx = r0x1050 
020F   ???? ????      02452         BANKSEL r0x1027
0211   07??           02453         ADDWF   r0x1027,F
                      02454 ;; ***  addSign  861
                      02455 ;;; /home/sdcc-builder/build/sdcc-build/orig/sdcc/src/pic14/genarith.c:862:addSign *{*
                      02456 ;;; /home/sdcc-builder/build/sdcc-build/orig/sdcc/src/pic14/gen.c:2316:resultRemat *{*
                      02457 ;;; /home/sdcc-builder/build/sdcc-build/orig/sdcc/src/pic14/gen.c:2760:genLabel *{*
                      02458 ;; ***  genLabel  2763
                      02459 ;;; /home/sdcc-builder/build/sdcc-build/orig/sdcc/src/pic14/gen.c:2316:resultRemat *{*
gpasm-1.4.0 #1106 (Oct  6 2014) obj\Debug\ssd   1-13-2021  14:26:32         PAGE 48


LOC    OBJECT CODE    LINE  SOURCE TEXT
  VALUE

                      02460 ;;; /home/sdcc-builder/build/sdcc-build/orig/sdcc/src/pic14/gen.c:6927:genAssign *{*
                      02461 ;; ***  genAssign  6928
                      02462 ;;      694 register type nRegs=1
                      02463 ;; ***  aopForSym 315
                      02464 ;;      327 sym->rname = _PORTD, size = 1
                      02465 ;;      line = 6937 result AOP_DIR=_PORTD, size=1, left -=-, size=0, right AOP_REG=r0x1050, size=1
                      02466 ;; ***  genAssign  7023
                      02467 ;;; /home/sdcc-builder/build/sdcc-build/orig/sdcc/src/pic14/gen.c:1343:mov2w_op *{*
                      02468 ;; ***  mov2w  1381  offset=0
                      02469 ;; >>> /home/sdcc-builder/build/sdcc-build/orig/sdcc/src/pic14/gen.c:1386:mov2w
                      02470 ;;      1109 rIdx = r0x1050 
0212                  02471 _00123_DS_
                      02472         .line   86; "ssd.c"     GPIO_WritePort(GPIO_PORTD_DATA, data);
0212   ???? ????      02473         BANKSEL r0x1027
0214   08??           02474         MOVF    r0x1027,W
                      02475 ;; >>> /home/sdcc-builder/build/sdcc-build/orig/sdcc/src/pic14/gen.c:7050:genAssign
                      02476 ;;      1009
                      02477 ;;      1028  _PORTD   offset=0
0215   ???? ????      02478         BANKSEL _PORTD
0217   00??           02479         MOVWF   _PORTD
                      02480 ;;; /home/sdcc-builder/build/sdcc-build/orig/sdcc/src/pic14/gen.c:2316:resultRemat *{*
                      02481 ;;; /home/sdcc-builder/build/sdcc-build/orig/sdcc/src/pic14/gen.c:3547:genCmpGt *{*
                      02482 ;; ***  genCmpGt  3548
                      02483 ;; ***  aopForSym 315
                      02484 ;;      327 sym->rname = _current_mode, size = 1
                      02485 ;;; /home/sdcc-builder/build/sdcc-build/orig/sdcc/src/pic14/gen.c:3294:genCmp *{*
                      02486 ;;swapping arguments (AOP_TYPEs 1/3)
                      02487 ;;unsigned compare: left >= lit(0x3=3), size=1
                      02488 ;; >>> /home/sdcc-builder/build/sdcc-build/orig/sdcc/src/pic14/gen.c:3265:pic14_mov2w_regOrLit
                      02489         .line   89; "ssd.c"     switch(current_mode){
0218   3003           02490         MOVLW   0x03
                      02491 ;; >>> /home/sdcc-builder/build/sdcc-build/orig/sdcc/src/pic14/gen.c:3432:genCmp
                      02492 ;;      1009
                      02493 ;;      1024  _current_mode   offset=0 - had to alloc by reg name
0219   ???? ????      02494         BANKSEL _current_mode
021B   02??           02495         SUBWF   _current_mode,W
                      02496 ;;; /home/sdcc-builder/build/sdcc-build/orig/sdcc/src/pic14/gen.c:3237:genSkipc *{*
                      02497 ;; >>> /home/sdcc-builder/build/sdcc-build/orig/sdcc/src/pic14/gen.c:3242:genSkipc
021C   1803           02498         BTFSC   STATUS,0
                      02499 ;; >>> /home/sdcc-builder/build/sdcc-build/orig/sdcc/src/pic14/gen.c:3246:genSkipc
                      02500 ;; ***  popGetLabel  key=8, label offset 21
021D   2???           02501         GOTO    _00129_DS_
                      02502 ;;genSkipc:3247: created from rifx:027A5DF4
                      02503 ;;; /home/sdcc-builder/build/sdcc-build/orig/sdcc/src/pic14/gen.c:2316:resultRemat *{*
                      02504 ;;; /home/sdcc-builder/build/sdcc-build/orig/sdcc/src/pic14/gen.c:2316:resultRemat *{*
                      02505 ;;; /home/sdcc-builder/build/sdcc-build/orig/sdcc/src/pic14/gen.c:7071:genJumpTab *{*
                      02506 ;; ***  genJumpTab  7072
                      02507 ;; ***  aopForSym 315
                      02508 ;;      327 sym->rname = _current_mode, size = 1
                      02509 ;; >>> /home/sdcc-builder/build/sdcc-build/orig/sdcc/src/pic14/gen.c:7087:genJumpTab
                      02510 ;; ***  popGetLabel  key=27, label offset 21
021E   30??           02511         MOVLW   HIGH(_00148_DS_)
                      02512 ;; >>> /home/sdcc-builder/build/sdcc-build/orig/sdcc/src/pic14/gen.c:7088:genJumpTab
gpasm-1.4.0 #1106 (Oct  6 2014) obj\Debug\ssd   1-13-2021  14:26:32         PAGE 49


LOC    OBJECT CODE    LINE  SOURCE TEXT
  VALUE

021F   1283 1303      02513         BANKSEL PCLATH
0221   008A           02514         MOVWF   PCLATH
                      02515 ;; >>> /home/sdcc-builder/build/sdcc-build/orig/sdcc/src/pic14/gen.c:7089:genJumpTab
                      02516 ;; ***  popGetLabel  key=27, label offset 21
0222   30??           02517         MOVLW   _00148_DS_
                      02518 ;; >>> /home/sdcc-builder/build/sdcc-build/orig/sdcc/src/pic14/gen.c:7090:genJumpTab
                      02519 ;;      1009
                      02520 ;;      1028  _current_mode   offset=0
0223   ???? ????      02521         BANKSEL _current_mode
0225   07??           02522         ADDWF   _current_mode,W
                      02523 ;; >>> /home/sdcc-builder/build/sdcc-build/orig/sdcc/src/pic14/gen.c:7091:genJumpTab
0226   1C03           02524         BTFSS   STATUS,0
0227   2???           02525         GOTO    _00005_DS_
                      02526 ;; >>> /home/sdcc-builder/build/sdcc-build/orig/sdcc/src/pic14/gen.c:7092:genJumpTab
0228   1283 1303      02527         BANKSEL PCLATH
022A   0A8A           02528         INCF    PCLATH,F
                      02529 ;; >>> /home/sdcc-builder/build/sdcc-build/orig/sdcc/src/pic14/gen.c:7093:genJumpTab
022B                  02530 _00005_DS_
022B   0082           02531         MOVWF   PCL
                      02532 ;; >>> /home/sdcc-builder/build/sdcc-build/orig/sdcc/src/pic14/gen.c:7102:genJumpTab
                      02533 ;; ***  popGetLabel  key=4, label offset 21
022C                  02534 _00148_DS_
022C   2???           02535         GOTO    _00125_DS_
                      02536 ;; >>> /home/sdcc-builder/build/sdcc-build/orig/sdcc/src/pic14/gen.c:7102:genJumpTab
                      02537 ;; ***  popGetLabel  key=5, label offset 21
022D   2???           02538         GOTO    _00126_DS_
                      02539 ;; >>> /home/sdcc-builder/build/sdcc-build/orig/sdcc/src/pic14/gen.c:7102:genJumpTab
                      02540 ;; ***  popGetLabel  key=6, label offset 21
022E   2???           02541         GOTO    _00127_DS_
                      02542 ;;; /home/sdcc-builder/build/sdcc-build/orig/sdcc/src/pic14/gen.c:2316:resultRemat *{*
                      02543 ;;; /home/sdcc-builder/build/sdcc-build/orig/sdcc/src/pic14/gen.c:2760:genLabel *{*
                      02544 ;; ***  genLabel  2763
                      02545 ;;; /home/sdcc-builder/build/sdcc-build/orig/sdcc/src/pic14/gen.c:2316:resultRemat *{*
                      02546 ;;; /home/sdcc-builder/build/sdcc-build/orig/sdcc/src/pic14/gen.c:2316:resultRemat *{*
                      02547 ;;; /home/sdcc-builder/build/sdcc-build/orig/sdcc/src/pic14/gen.c:2316:resultRemat *{*
                      02548 ;;; /home/sdcc-builder/build/sdcc-build/orig/sdcc/src/pic14/gen.c:2086:genCall *{*
                      02549 ;; ***  genCall  2088
                      02550 ;;; /home/sdcc-builder/build/sdcc-build/orig/sdcc/src/pic14/gen.c:1801:saveRegisters *{*
                      02551 ;; ***  saveRegisters  1803
                      02552 ;; ***  aopForSym 315
                      02553 ;;      327 sym->rname = _current_ssd, size = 1
                      02554 ;;      2135 left AOP_LIT
                      02555 ;;; /home/sdcc-builder/build/sdcc-build/orig/sdcc/src/pic14/gen.c:1343:mov2w_op *{*
                      02556 ;; >>> /home/sdcc-builder/build/sdcc-build/orig/sdcc/src/pic14/gen.c:1361:mov2w_op
022F                  02557 _00125_DS_
                      02558         .line   92; "ssd.c"     SSD_SetState(current_ssd, SSD_ON);
022F   3001           02559         MOVLW   0x01
                      02560 ;; ***  aopForSym 315
                      02561 ;;      327 sym->rname = _current_ssd, size = 1
                      02562 ;;      2135 left AOP_DIR
                      02563 ;; >>> /home/sdcc-builder/build/sdcc-build/orig/sdcc/src/pic14/gen.c:2143:genCall
                      02564 ;; ***  popRegFromIdx,1042  , rIdx=0x7f
0230   00??           02565         MOVWF   STK00
gpasm-1.4.0 #1106 (Oct  6 2014) obj\Debug\ssd   1-13-2021  14:26:32         PAGE 50


LOC    OBJECT CODE    LINE  SOURCE TEXT
  VALUE

                      02566 ;;; /home/sdcc-builder/build/sdcc-build/orig/sdcc/src/pic14/gen.c:1343:mov2w_op *{*
                      02567 ;; ***  mov2w  1381  offset=0
                      02568 ;; >>> /home/sdcc-builder/build/sdcc-build/orig/sdcc/src/pic14/gen.c:1386:mov2w
                      02569 ;;      1009
                      02570 ;;      1028  _current_ssd   offset=0
0231   ???? ????      02571         BANKSEL _current_ssd
0233   08??           02572         MOVF    _current_ssd,W
                      02573 ;; >>> /home/sdcc-builder/build/sdcc-build/orig/sdcc/src/pic14/gen.c:2173:genCall
0234   ???? ????      02574         PAGESEL _SSD_SetState
                      02575 ;; >>> /home/sdcc-builder/build/sdcc-build/orig/sdcc/src/pic14/gen.c:2175:genCall
0236   2???           02576         CALL    _SSD_SetState
                      02577 ;; >>> /home/sdcc-builder/build/sdcc-build/orig/sdcc/src/pic14/gen.c:2181:genCall
0237   ???? ????      02578         PAGESEL $
                      02579 ;;; /home/sdcc-builder/build/sdcc-build/orig/sdcc/src/pic14/gen.c:1845:unsaveRegisters *{*
                      02580 ;; ***  unsaveRegisters  1847
                      02581 ;;; /home/sdcc-builder/build/sdcc-build/orig/sdcc/src/pic14/gen.c:2316:resultRemat *{*
                      02582 ;;; /home/sdcc-builder/build/sdcc-build/orig/sdcc/src/pic14/gen.c:2778:genGoto *{*
                      02583 ;; >>> /home/sdcc-builder/build/sdcc-build/orig/sdcc/src/pic14/gen.c:2780:genGoto
                      02584 ;; ***  popGetLabel  key=8, label offset 21
                      02585         .line   93; "ssd.c"     break;
0239   2???           02586         GOTO    _00129_DS_
                      02587 ;;; /home/sdcc-builder/build/sdcc-build/orig/sdcc/src/pic14/gen.c:2316:resultRemat *{*
                      02588 ;;; /home/sdcc-builder/build/sdcc-build/orig/sdcc/src/pic14/gen.c:2760:genLabel *{*
                      02589 ;; ***  genLabel  2763
                      02590 ;;; /home/sdcc-builder/build/sdcc-build/orig/sdcc/src/pic14/gen.c:2316:resultRemat *{*
                      02591 ;;; /home/sdcc-builder/build/sdcc-build/orig/sdcc/src/pic14/gen.c:2316:resultRemat *{*
                      02592 ;;; /home/sdcc-builder/build/sdcc-build/orig/sdcc/src/pic14/gen.c:2316:resultRemat *{*
                      02593 ;;; /home/sdcc-builder/build/sdcc-build/orig/sdcc/src/pic14/gen.c:2086:genCall *{*
                      02594 ;; ***  genCall  2088
                      02595 ;;; /home/sdcc-builder/build/sdcc-build/orig/sdcc/src/pic14/gen.c:1801:saveRegisters *{*
                      02596 ;; ***  saveRegisters  1803
                      02597 ;;      2135 left AOP_LIT
                      02598 ;;; /home/sdcc-builder/build/sdcc-build/orig/sdcc/src/pic14/gen.c:1343:mov2w_op *{*
                      02599 ;; >>> /home/sdcc-builder/build/sdcc-build/orig/sdcc/src/pic14/gen.c:1361:mov2w_op
023A                  02600 _00126_DS_
                      02601         .line   96; "ssd.c"     SSD_DisplayToggle(SSD_L,SSD_M);
023A   3001           02602         MOVLW   0x01
                      02603 ;;      2135 left AOP_LIT
                      02604 ;; >>> /home/sdcc-builder/build/sdcc-build/orig/sdcc/src/pic14/gen.c:2143:genCall
                      02605 ;; ***  popRegFromIdx,1042  , rIdx=0x7f
023B   00??           02606         MOVWF   STK00
                      02607 ;;; /home/sdcc-builder/build/sdcc-build/orig/sdcc/src/pic14/gen.c:1343:mov2w_op *{*
                      02608 ;; >>> /home/sdcc-builder/build/sdcc-build/orig/sdcc/src/pic14/gen.c:1361:mov2w_op
023C   3000           02609         MOVLW   0x00
                      02610 ;; >>> /home/sdcc-builder/build/sdcc-build/orig/sdcc/src/pic14/gen.c:2173:genCall
023D   ???? ????      02611         PAGESEL _SSD_DisplayToggle
                      02612 ;; >>> /home/sdcc-builder/build/sdcc-build/orig/sdcc/src/pic14/gen.c:2175:genCall
023F   2???           02613         CALL    _SSD_DisplayToggle
                      02614 ;; >>> /home/sdcc-builder/build/sdcc-build/orig/sdcc/src/pic14/gen.c:2181:genCall
0240   ???? ????      02615         PAGESEL $
                      02616 ;;; /home/sdcc-builder/build/sdcc-build/orig/sdcc/src/pic14/gen.c:1845:unsaveRegisters *{*
                      02617 ;; ***  unsaveRegisters  1847
                      02618 ;;; /home/sdcc-builder/build/sdcc-build/orig/sdcc/src/pic14/gen.c:2316:resultRemat *{*
gpasm-1.4.0 #1106 (Oct  6 2014) obj\Debug\ssd   1-13-2021  14:26:32         PAGE 51


LOC    OBJECT CODE    LINE  SOURCE TEXT
  VALUE

                      02619 ;;; /home/sdcc-builder/build/sdcc-build/orig/sdcc/src/pic14/gen.c:2778:genGoto *{*
                      02620 ;; >>> /home/sdcc-builder/build/sdcc-build/orig/sdcc/src/pic14/gen.c:2780:genGoto
                      02621 ;; ***  popGetLabel  key=8, label offset 21
                      02622         .line   97; "ssd.c"     break;
0242   2???           02623         GOTO    _00129_DS_
                      02624 ;;; /home/sdcc-builder/build/sdcc-build/orig/sdcc/src/pic14/gen.c:2316:resultRemat *{*
                      02625 ;;; /home/sdcc-builder/build/sdcc-build/orig/sdcc/src/pic14/gen.c:2760:genLabel *{*
                      02626 ;; ***  genLabel  2763
                      02627 ;;; /home/sdcc-builder/build/sdcc-build/orig/sdcc/src/pic14/gen.c:2316:resultRemat *{*
                      02628 ;;; /home/sdcc-builder/build/sdcc-build/orig/sdcc/src/pic14/gen.c:2316:resultRemat *{*
                      02629 ;;; /home/sdcc-builder/build/sdcc-build/orig/sdcc/src/pic14/gen.c:2316:resultRemat *{*
                      02630 ;;; /home/sdcc-builder/build/sdcc-build/orig/sdcc/src/pic14/gen.c:2086:genCall *{*
                      02631 ;; ***  genCall  2088
                      02632 ;;; /home/sdcc-builder/build/sdcc-build/orig/sdcc/src/pic14/gen.c:1801:saveRegisters *{*
                      02633 ;; ***  saveRegisters  1803
                      02634 ;;      2135 left AOP_LIT
                      02635 ;;; /home/sdcc-builder/build/sdcc-build/orig/sdcc/src/pic14/gen.c:1343:mov2w_op *{*
                      02636 ;; >>> /home/sdcc-builder/build/sdcc-build/orig/sdcc/src/pic14/gen.c:1361:mov2w_op
0243                  02637 _00127_DS_
                      02638         .line   100; "ssd.c"    SSD_DisplayToggle(SSD_N,SSD_R);
0243   3003           02639         MOVLW   0x03
                      02640 ;;      2135 left AOP_LIT
                      02641 ;; >>> /home/sdcc-builder/build/sdcc-build/orig/sdcc/src/pic14/gen.c:2143:genCall
                      02642 ;; ***  popRegFromIdx,1042  , rIdx=0x7f
0244   00??           02643         MOVWF   STK00
                      02644 ;;; /home/sdcc-builder/build/sdcc-build/orig/sdcc/src/pic14/gen.c:1343:mov2w_op *{*
                      02645 ;; >>> /home/sdcc-builder/build/sdcc-build/orig/sdcc/src/pic14/gen.c:1361:mov2w_op
0245   3002           02646         MOVLW   0x02
                      02647 ;; >>> /home/sdcc-builder/build/sdcc-build/orig/sdcc/src/pic14/gen.c:2173:genCall
0246   ???? ????      02648         PAGESEL _SSD_DisplayToggle
                      02649 ;; >>> /home/sdcc-builder/build/sdcc-build/orig/sdcc/src/pic14/gen.c:2175:genCall
0248   2???           02650         CALL    _SSD_DisplayToggle
                      02651 ;; >>> /home/sdcc-builder/build/sdcc-build/orig/sdcc/src/pic14/gen.c:2181:genCall
0249   ???? ????      02652         PAGESEL $
                      02653 ;;; /home/sdcc-builder/build/sdcc-build/orig/sdcc/src/pic14/gen.c:1845:unsaveRegisters *{*
                      02654 ;; ***  unsaveRegisters  1847
                      02655 ;;; /home/sdcc-builder/build/sdcc-build/orig/sdcc/src/pic14/gen.c:2316:resultRemat *{*
                      02656 ;;; /home/sdcc-builder/build/sdcc-build/orig/sdcc/src/pic14/gen.c:2760:genLabel *{*
                      02657 ;; ***  genLabel  2763
                      02658 ;;; /home/sdcc-builder/build/sdcc-build/orig/sdcc/src/pic14/gen.c:2316:resultRemat *{*
                      02659 ;;; /home/sdcc-builder/build/sdcc-build/orig/sdcc/src/pic14/gen.c:3619:genCmpEq *{*
                      02660 ;; ***  genCmpEq  3620
                      02661 ;; ifx is non-null
                      02662 ;; ***  aopForSym 315
                      02663 ;;      327 sym->rname = _current_ssd, size = 1
                      02664 ;;      line = 3631 result AOP_CRY=0x00, size=0, left AOP_DIR=_current_ssd, size=1, right AOP_LIT=0x03, 
                            size=1
                      02665 ;; ***  mov2w  1381  offset=0
                      02666 ;; >>> /home/sdcc-builder/build/sdcc-build/orig/sdcc/src/pic14/gen.c:1386:mov2w
                      02667 ;;      1009
                      02668 ;;      1028  _current_ssd   offset=0
024B                  02669 _00129_DS_
                      02670         .line   107; "ssd.c"    if(current_ssd == SSD_R)
gpasm-1.4.0 #1106 (Oct  6 2014) obj\Debug\ssd   1-13-2021  14:26:32         PAGE 52


LOC    OBJECT CODE    LINE  SOURCE TEXT
  VALUE

024B   ???? ????      02671         BANKSEL _current_ssd
024D   08??           02672         MOVF    _current_ssd,W
                      02673 ;; >>> /home/sdcc-builder/build/sdcc-build/orig/sdcc/src/pic14/gen.c:3685:genCmpEq
024E   3A03           02674         XORLW   0x03
                      02675 ;; >>> /home/sdcc-builder/build/sdcc-build/orig/sdcc/src/pic14/gen.c:3687:genCmpEq
024F   1D03           02676         BTFSS   STATUS,2
                      02677 ;; >>> /home/sdcc-builder/build/sdcc-build/orig/sdcc/src/pic14/gen.c:3690:genCmpEq
                      02678 ;; ***  popGetLabel  key=10, label offset 21
0250   2???           02679         GOTO    _00131_DS_
                      02680 ;;; /home/sdcc-builder/build/sdcc-build/orig/sdcc/src/pic14/gen.c:2316:resultRemat *{*
                      02681 ;;; /home/sdcc-builder/build/sdcc-build/orig/sdcc/src/pic14/gen.c:2316:resultRemat *{*
                      02682 ;;; /home/sdcc-builder/build/sdcc-build/orig/sdcc/src/pic14/gen.c:6927:genAssign *{*
                      02683 ;; ***  genAssign  6928
                      02684 ;; ***  aopForSym 315
                      02685 ;;      327 sym->rname = _current_ssd, size = 1
                      02686 ;;      line = 6937 result AOP_DIR=_current_ssd, size=1, left -=-, size=0, right AOP_LIT=0x00, size=1
                      02687 ;; ***  genAssign  7023
                      02688 ;; >>> /home/sdcc-builder/build/sdcc-build/orig/sdcc/src/pic14/gen.c:7035:genAssign
                      02689 ;;      1009
                      02690 ;;      1028  _current_ssd   offset=0
                      02691         .line   109; "ssd.c"    current_ssd  = SSD_L;
0251   01??           02692         CLRF    _current_ssd
                      02693 ;;; /home/sdcc-builder/build/sdcc-build/orig/sdcc/src/pic14/gen.c:2316:resultRemat *{*
                      02694 ;;; /home/sdcc-builder/build/sdcc-build/orig/sdcc/src/pic14/gen.c:2778:genGoto *{*
                      02695 ;; >>> /home/sdcc-builder/build/sdcc-build/orig/sdcc/src/pic14/gen.c:2780:genGoto
                      02696 ;; ***  popGetLabel  key=12, label offset 21
0252   2???           02697         GOTO    _00133_DS_
                      02698 ;;; /home/sdcc-builder/build/sdcc-build/orig/sdcc/src/pic14/gen.c:2316:resultRemat *{*
                      02699 ;;; /home/sdcc-builder/build/sdcc-build/orig/sdcc/src/pic14/gen.c:2760:genLabel *{*
                      02700 ;; ***  genLabel  2763
                      02701 ;;; /home/sdcc-builder/build/sdcc-build/orig/sdcc/src/pic14/gen.c:2316:resultRemat *{*
                      02702 ;; ***  genPlus  611
                      02703 ;;; /home/sdcc-builder/build/sdcc-build/orig/sdcc/src/pic14/genarith.c:612:genPlus *{*
                      02704 ;; ***  aopForSym 315
                      02705 ;;      327 sym->rname = _current_ssd, size = 1
                      02706 ;;      line = 618 result AOP_DIR=_current_ssd, size=1, left AOP_DIR=_current_ssd, size=1, right AOP_LIT
                            =0x01, size=1
                      02707 ;;; /home/sdcc-builder/build/sdcc-build/orig/sdcc/src/pic14/genarith.c:142:genPlusIncr *{*
                      02708 ;; ***  genPlusIncr  144
                      02709 ;;      result AOP_DIR, left AOP_DIR, right AOP_LIT
                      02710 ;;      genPlusIncr  156
                      02711 ;; >>> /home/sdcc-builder/build/sdcc-build/orig/sdcc/src/pic14/genarith.c:168:genPlusIncr
                      02712 ;;      1009
                      02713 ;;      1028  _current_ssd   offset=0
0253                  02714 _00131_DS_
                      02715         .line   113; "ssd.c"    current_ssd++;
0253   ???? ????      02716         BANKSEL _current_ssd
0255   0A??           02717         INCF    _current_ssd,F
                      02718 ;;; /home/sdcc-builder/build/sdcc-build/orig/sdcc/src/pic14/gen.c:2316:resultRemat *{*
                      02719 ;;; /home/sdcc-builder/build/sdcc-build/orig/sdcc/src/pic14/gen.c:2760:genLabel *{*
                      02720 ;; ***  genLabel  2763
                      02721 ;;; /home/sdcc-builder/build/sdcc-build/orig/sdcc/src/pic14/gen.c:2316:resultRemat *{*
                      02722 ;;; /home/sdcc-builder/build/sdcc-build/orig/sdcc/src/pic14/gen.c:2528:genEndFunction *{*
gpasm-1.4.0 #1106 (Oct  6 2014) obj\Debug\ssd   1-13-2021  14:26:32         PAGE 53


LOC    OBJECT CODE    LINE  SOURCE TEXT
  VALUE

                      02723 ;; ***  genEndFunction  2530
0256                  02724 _00133_DS_
0256   0008           02725         RETURN  
                      02726 ; exit point of _SSD_Update
                      02727 ;;; /home/sdcc-builder/build/sdcc-build/orig/sdcc/src/pic14/gen.c:7426:genpic14Code *{*
                      02728 
                      02729 ;***
                      02730 ;  pBlock Stats: dbName = C
                      02731 ;***
                      02732 ;entry:  _SSD_Init      ;Function start
                      02733 ; 2 exit points
                      02734 ;has an exit
                      02735 ;functions called:
                      02736 ;   _SSD_SetState
                      02737 ;   _SSD_SetSymbol
                      02738 ;   _SSD_SetState
                      02739 ;   _SSD_SetSymbol
                      02740 ;6 compiler assigned registers:
                      02741 ;   r0x1028
                      02742 ;   STK00
                      02743 ;   r0x1029
                      02744 ;   STK01
                      02745 ;   r0x102A
                      02746 ;   r0x102B
                      02747 ;; Starting pCode block
                      02748 ;;; /home/sdcc-builder/build/sdcc-build/orig/sdcc/src/pic14/gen.c:2316:resultRemat *{*
                      02749 ;;; /home/sdcc-builder/build/sdcc-build/orig/sdcc/src/pic14/gen.c:2760:genLabel *{*
                      02750 ;; ***  genLabel  2763
                      02751 ;;; /home/sdcc-builder/build/sdcc-build/orig/sdcc/src/pic14/gen.c:2316:resultRemat *{*
                      02752 ;;; /home/sdcc-builder/build/sdcc-build/orig/sdcc/src/pic14/gen.c:2340:genFunction *{*
                      02753 ;; ***  genFunction  2342 curr label offset=0previous max_key=0 
0257                  02754 _SSD_Init       ;Function start
                      02755 ; 2 exit points
                      02756 ;;; /home/sdcc-builder/build/sdcc-build/orig/sdcc/src/pic14/gen.c:2316:resultRemat *{*
                      02757 ;;; /home/sdcc-builder/build/sdcc-build/orig/sdcc/src/pic14/gen.c:7358:genReceive *{*
                      02758 ;; ***  genReceive  7359
                      02759 ;;      694 register type nRegs=1
                      02760 ;;; /home/sdcc-builder/build/sdcc-build/orig/sdcc/src/pic14/gen.c:1907:assignResultValue *{*
                      02761 ;; ***  assignResultValue  1909
                      02762 ;;      line = 1911 result -=-, size=0, left AOP_REG=r0x1048, size=1, right -=-, size=0
                      02763 ;; >>> /home/sdcc-builder/build/sdcc-build/orig/sdcc/src/pic14/gen.c:1393:movwf
                      02764 ;;      1109 rIdx = r0x1048 
                      02765         .line   36; "ssd.c"     void SSD_Init(tSSD ssd, tSSD_State initial_state, tSSD_Symbol initial_sy
                            mbol)
0257   ???? ????      02766         BANKSEL r0x1028
0259   00??           02767         MOVWF   r0x1028
                      02768 ;;; /home/sdcc-builder/build/sdcc-build/orig/sdcc/src/pic14/gen.c:2316:resultRemat *{*
                      02769 ;;; /home/sdcc-builder/build/sdcc-build/orig/sdcc/src/pic14/gen.c:7358:genReceive *{*
                      02770 ;; ***  genReceive  7359
                      02771 ;;      694 register type nRegs=1
                      02772 ;;; /home/sdcc-builder/build/sdcc-build/orig/sdcc/src/pic14/gen.c:1907:assignResultValue *{*
                      02773 ;; ***  assignResultValue  1909
                      02774 ;;      line = 1911 result -=-, size=0, left AOP_REG=r0x1049, size=1, right -=-, size=0
gpasm-1.4.0 #1106 (Oct  6 2014) obj\Debug\ssd   1-13-2021  14:26:32         PAGE 54


LOC    OBJECT CODE    LINE  SOURCE TEXT
  VALUE

                      02775 ;; >>> /home/sdcc-builder/build/sdcc-build/orig/sdcc/src/pic14/gen.c:1423:get_returnvalue
                      02776 ;; ***  popRegFromIdx,1042  , rIdx=0x7f
025A   08??           02777         MOVF    STK00,W
                      02778 ;; >>> /home/sdcc-builder/build/sdcc-build/orig/sdcc/src/pic14/gen.c:1393:movwf
                      02779 ;;      1109 rIdx = r0x1049 
025B   00??           02780         MOVWF   r0x1029
                      02781 ;;; /home/sdcc-builder/build/sdcc-build/orig/sdcc/src/pic14/gen.c:2316:resultRemat *{*
                      02782 ;;; /home/sdcc-builder/build/sdcc-build/orig/sdcc/src/pic14/gen.c:7358:genReceive *{*
                      02783 ;; ***  genReceive  7359
                      02784 ;;      694 register type nRegs=1
                      02785 ;;; /home/sdcc-builder/build/sdcc-build/orig/sdcc/src/pic14/gen.c:1907:assignResultValue *{*
                      02786 ;; ***  assignResultValue  1909
                      02787 ;;      line = 1911 result -=-, size=0, left AOP_REG=r0x104A, size=1, right -=-, size=0
                      02788 ;; >>> /home/sdcc-builder/build/sdcc-build/orig/sdcc/src/pic14/gen.c:1423:get_returnvalue
                      02789 ;; ***  popRegFromIdx,1042  , rIdx=0x7e
025C   08??           02790         MOVF    STK01,W
                      02791 ;; >>> /home/sdcc-builder/build/sdcc-build/orig/sdcc/src/pic14/gen.c:1393:movwf
                      02792 ;;      1109 rIdx = r0x104A 
025D   00??           02793         MOVWF   r0x102A
                      02794 ;;; /home/sdcc-builder/build/sdcc-build/orig/sdcc/src/pic14/gen.c:2316:resultRemat *{*
                      02795 ;;; /home/sdcc-builder/build/sdcc-build/orig/sdcc/src/pic14/gen.c:6927:genAssign *{*
                      02796 ;; ***  genAssign  6928
                      02797 ;; ***  aopForSym 315
                      02798 ;;      327 sym->rname = _TRISD, size = 1
                      02799 ;;      line = 6937 result AOP_DIR=_TRISD, size=1, left -=-, size=0, right AOP_LIT=0x00, size=1
                      02800 ;; ***  genAssign  7023
                      02801 ;; >>> /home/sdcc-builder/build/sdcc-build/orig/sdcc/src/pic14/gen.c:7035:genAssign
                      02802 ;;      1009
                      02803 ;;      1028  _TRISD   offset=0
                      02804         .line   39; "ssd.c"     GPIO_InitPort(GPIO_PORTD_DIRECTION, GPIO_OUT);
025E   ???? ????      02805         BANKSEL _TRISD
0260   01??           02806         CLRF    _TRISD
                      02807 ;;; /home/sdcc-builder/build/sdcc-build/orig/sdcc/src/pic14/gen.c:2316:resultRemat *{*
                      02808 ;;; /home/sdcc-builder/build/sdcc-build/orig/sdcc/src/pic14/gen.c:2316:resultRemat *{*
                      02809 ;;; /home/sdcc-builder/build/sdcc-build/orig/sdcc/src/pic14/gen.c:2316:resultRemat *{*
                      02810 ;;; /home/sdcc-builder/build/sdcc-build/orig/sdcc/src/pic14/gen.c:6162:genPointerGet *{*
                      02811 ;; ***  genPointerGet  6163
                      02812 ;;; /home/sdcc-builder/build/sdcc-build/orig/sdcc/src/pic14/gen.c:5944:genNearPointerGet *{*
                      02813 ;; ***  genNearPointerGet  5945
                      02814 ;;      613
                      02815 ;;      aopForRemat 392
                      02816 ;;      418: rname _ssd_data, val 10, const = 0
                      02817 ;;; /home/sdcc-builder/build/sdcc-build/orig/sdcc/src/pic14/gen.c:5898:genDataPointerGet *{*
                      02818 ;; ***  genDataPointerGet  5899
                      02819 ;; ***  aopForSym 315
                      02820 ;;      327 sym->rname = _PORTD, size = 1
                      02821 ;;      833: aopGet AOP_PCODE type PO_IMMEDIATE
                      02822 ;;      _ssd_data offset 10
                      02823 ;;      line = 5911 result AOP_DIR=_PORTD, size=1, left AOP_PCODE=(_ssd_data+10), size=2, right -=-, siz
                            e=0
                      02824 ;; >>> /home/sdcc-builder/build/sdcc-build/orig/sdcc/src/pic14/gen.c:5922:genDataPointerGet
                      02825 ;;      popGet AOP_PCODE (PO_IMMEDIATE + 0) 1130 _ssd_data
                      02826         .line   40; "ssd.c"     GPIO_WritePort(GPIO_PORTD_DATA, ssd_data[SSD_NULL]);
gpasm-1.4.0 #1106 (Oct  6 2014) obj\Debug\ssd   1-13-2021  14:26:32         PAGE 55


LOC    OBJECT CODE    LINE  SOURCE TEXT
  VALUE

0261   ???? ????      02827         BANKSEL _ssd_data
0263   08??           02828         MOVF    (_ssd_data + 10),W
                      02829 ;; >>> /home/sdcc-builder/build/sdcc-build/orig/sdcc/src/pic14/gen.c:5923:genDataPointerGet
                      02830 ;;      1009
                      02831 ;;      1028  _PORTD   offset=0
0264   ???? ????      02832         BANKSEL _PORTD
0266   00??           02833         MOVWF   _PORTD
                      02834 ;;; /home/sdcc-builder/build/sdcc-build/orig/sdcc/src/pic14/gen.c:2316:resultRemat *{*
                      02835 ;;; /home/sdcc-builder/build/sdcc-build/orig/sdcc/src/pic14/gen.c:3547:genCmpGt *{*
                      02836 ;; ***  genCmpGt  3548
                      02837 ;;      694 register type nRegs=1
                      02838 ;;; /home/sdcc-builder/build/sdcc-build/orig/sdcc/src/pic14/gen.c:3294:genCmp *{*
                      02839 ;;swapping arguments (AOP_TYPEs 1/2)
                      02840 ;;unsigned compare: left >= lit(0x4=4), size=1
                      02841 ;; >>> /home/sdcc-builder/build/sdcc-build/orig/sdcc/src/pic14/gen.c:3265:pic14_mov2w_regOrLit
                      02842         .line   43; "ssd.c"     switch(ssd)
0267   3004           02843         MOVLW   0x04
                      02844 ;; >>> /home/sdcc-builder/build/sdcc-build/orig/sdcc/src/pic14/gen.c:3432:genCmp
                      02845 ;;      1109 rIdx = r0x1048 
0268   ???? ????      02846         BANKSEL r0x1028
026A   02??           02847         SUBWF   r0x1028,W
                      02848 ;;; /home/sdcc-builder/build/sdcc-build/orig/sdcc/src/pic14/gen.c:3237:genSkipc *{*
                      02849 ;; >>> /home/sdcc-builder/build/sdcc-build/orig/sdcc/src/pic14/gen.c:3242:genSkipc
026B   1803           02850         BTFSC   STATUS,0
                      02851 ;; >>> /home/sdcc-builder/build/sdcc-build/orig/sdcc/src/pic14/gen.c:3246:genSkipc
                      02852 ;; ***  popGetLabel  key=6, label offset 4
026C   2???           02853         GOTO    _00110_DS_
                      02854 ;;genSkipc:3247: created from rifx:027A5DF4
                      02855 ;;; /home/sdcc-builder/build/sdcc-build/orig/sdcc/src/pic14/gen.c:2316:resultRemat *{*
                      02856 ;;; /home/sdcc-builder/build/sdcc-build/orig/sdcc/src/pic14/gen.c:2316:resultRemat *{*
                      02857 ;;; /home/sdcc-builder/build/sdcc-build/orig/sdcc/src/pic14/gen.c:7071:genJumpTab *{*
                      02858 ;; ***  genJumpTab  7072
                      02859 ;;      694 register type nRegs=1
                      02860 ;; >>> /home/sdcc-builder/build/sdcc-build/orig/sdcc/src/pic14/gen.c:7087:genJumpTab
                      02861 ;; ***  popGetLabel  key=13, label offset 4
026D   30??           02862         MOVLW   HIGH(_00117_DS_)
                      02863 ;; >>> /home/sdcc-builder/build/sdcc-build/orig/sdcc/src/pic14/gen.c:7088:genJumpTab
026E   1283 1303      02864         BANKSEL PCLATH
0270   008A           02865         MOVWF   PCLATH
                      02866 ;; >>> /home/sdcc-builder/build/sdcc-build/orig/sdcc/src/pic14/gen.c:7089:genJumpTab
                      02867 ;; ***  popGetLabel  key=13, label offset 4
0271   30??           02868         MOVLW   _00117_DS_
                      02869 ;; >>> /home/sdcc-builder/build/sdcc-build/orig/sdcc/src/pic14/gen.c:7090:genJumpTab
                      02870 ;;      1109 rIdx = r0x1048 
0272   ???? ????      02871         BANKSEL r0x1028
0274   07??           02872         ADDWF   r0x1028,W
                      02873 ;; >>> /home/sdcc-builder/build/sdcc-build/orig/sdcc/src/pic14/gen.c:7091:genJumpTab
0275   1C03           02874         BTFSS   STATUS,0
0276   2???           02875         GOTO    _00006_DS_
                      02876 ;; >>> /home/sdcc-builder/build/sdcc-build/orig/sdcc/src/pic14/gen.c:7092:genJumpTab
0277   1283 1303      02877         BANKSEL PCLATH
0279   0A8A           02878         INCF    PCLATH,F
                      02879 ;; >>> /home/sdcc-builder/build/sdcc-build/orig/sdcc/src/pic14/gen.c:7093:genJumpTab
gpasm-1.4.0 #1106 (Oct  6 2014) obj\Debug\ssd   1-13-2021  14:26:32         PAGE 56


LOC    OBJECT CODE    LINE  SOURCE TEXT
  VALUE

027A                  02880 _00006_DS_
027A   0082           02881         MOVWF   PCL
                      02882 ;; >>> /home/sdcc-builder/build/sdcc-build/orig/sdcc/src/pic14/gen.c:7102:genJumpTab
                      02883 ;; ***  popGetLabel  key=1, label offset 4
027B                  02884 _00117_DS_
027B   2???           02885         GOTO    _00105_DS_
                      02886 ;; >>> /home/sdcc-builder/build/sdcc-build/orig/sdcc/src/pic14/gen.c:7102:genJumpTab
                      02887 ;; ***  popGetLabel  key=2, label offset 4
027C   2???           02888         GOTO    _00106_DS_
                      02889 ;; >>> /home/sdcc-builder/build/sdcc-build/orig/sdcc/src/pic14/gen.c:7102:genJumpTab
                      02890 ;; ***  popGetLabel  key=3, label offset 4
027D   2???           02891         GOTO    _00107_DS_
                      02892 ;; >>> /home/sdcc-builder/build/sdcc-build/orig/sdcc/src/pic14/gen.c:7102:genJumpTab
                      02893 ;; ***  popGetLabel  key=4, label offset 4
027E   2???           02894         GOTO    _00108_DS_
                      02895 ;;; /home/sdcc-builder/build/sdcc-build/orig/sdcc/src/pic14/gen.c:2316:resultRemat *{*
                      02896 ;;; /home/sdcc-builder/build/sdcc-build/orig/sdcc/src/pic14/gen.c:2760:genLabel *{*
                      02897 ;; ***  genLabel  2763
                      02898 ;;; /home/sdcc-builder/build/sdcc-build/orig/sdcc/src/pic14/gen.c:2316:resultRemat *{*
                      02899 ;;; /home/sdcc-builder/build/sdcc-build/orig/sdcc/src/pic14/gen.c:7120:genCast *{*
                      02900 ;; ***  genCast  7121
                      02901 ;; ***  aopForSym 315
                      02902 ;;      327 sym->rname = _TRISB, size = 1
                      02903 ;;      694 register type nRegs=1
                      02904 ;;      line = 7129 result AOP_REG=r0x104B, size=1, left -=-, size=0, right AOP_DIR=_TRISB, size=1
                      02905 ;; ***  genCast  7253
                      02906 ;; >>> /home/sdcc-builder/build/sdcc-build/orig/sdcc/src/pic14/gen.c:7277:genCast
                      02907 ;;      1009
                      02908 ;;      1028  _TRISB   offset=0
027F                  02909 _00105_DS_
                      02910         .line   46; "ssd.c"     GPIO_InitPortPin(SSD_1_PORT_CR, SSD_1_PIN, GPIO_OUT);
027F   ???? ????      02911         BANKSEL _TRISB
0281   08??           02912         MOVF    _TRISB,W
                      02913 ;; >>> /home/sdcc-builder/build/sdcc-build/orig/sdcc/src/pic14/gen.c:7278:genCast
                      02914 ;;      1109 rIdx = r0x104B 
0282   ???? ????      02915         BANKSEL r0x102B
0284   00??           02916         MOVWF   r0x102B
                      02917 ;;; /home/sdcc-builder/build/sdcc-build/orig/sdcc/src/pic14/gen.c:2316:resultRemat *{*
                      02918 ;;; /home/sdcc-builder/build/sdcc-build/orig/sdcc/src/pic14/gen.c:3919:genAnd *{*
                      02919 ;; ***  genAnd  3920
                      02920 ;;      694 register type nRegs=1
                      02921 ;; ***  aopForSym 315
                      02922 ;;      327 sym->rname = _TRISB, size = 1
                      02923 ;;      line = 3955 result AOP_DIR=_TRISB, size=1, left AOP_REG=r0x104B, size=1, right AOP_LIT=0x7f, siz
                            e=1
                      02924 ;; >>> /home/sdcc-builder/build/sdcc-build/orig/sdcc/src/pic14/gen.c:4190:genAnd
0285   307F           02925         MOVLW   0x7f
                      02926 ;; >>> /home/sdcc-builder/build/sdcc-build/orig/sdcc/src/pic14/gen.c:4191:genAnd
                      02927 ;;      1109 rIdx = r0x104B 
0286   05??           02928         ANDWF   r0x102B,W
                      02929 ;; >>> /home/sdcc-builder/build/sdcc-build/orig/sdcc/src/pic14/gen.c:4192:genAnd
                      02930 ;;      1009
                      02931 ;;      1028  _TRISB   offset=0
gpasm-1.4.0 #1106 (Oct  6 2014) obj\Debug\ssd   1-13-2021  14:26:32         PAGE 57


LOC    OBJECT CODE    LINE  SOURCE TEXT
  VALUE

0287   ???? ????      02932         BANKSEL _TRISB
0289   00??           02933         MOVWF   _TRISB
                      02934 ;;; /home/sdcc-builder/build/sdcc-build/orig/sdcc/src/pic14/gen.c:2316:resultRemat *{*
                      02935 ;;; /home/sdcc-builder/build/sdcc-build/orig/sdcc/src/pic14/gen.c:2778:genGoto *{*
                      02936 ;; >>> /home/sdcc-builder/build/sdcc-build/orig/sdcc/src/pic14/gen.c:2780:genGoto
                      02937 ;; ***  popGetLabel  key=6, label offset 4
                      02938         .line   47; "ssd.c"     break;
028A   2???           02939         GOTO    _00110_DS_
                      02940 ;;; /home/sdcc-builder/build/sdcc-build/orig/sdcc/src/pic14/gen.c:2316:resultRemat *{*
                      02941 ;;; /home/sdcc-builder/build/sdcc-build/orig/sdcc/src/pic14/gen.c:2760:genLabel *{*
                      02942 ;; ***  genLabel  2763
                      02943 ;;; /home/sdcc-builder/build/sdcc-build/orig/sdcc/src/pic14/gen.c:2316:resultRemat *{*
                      02944 ;;; /home/sdcc-builder/build/sdcc-build/orig/sdcc/src/pic14/gen.c:7120:genCast *{*
                      02945 ;; ***  genCast  7121
                      02946 ;; ***  aopForSym 315
                      02947 ;;      327 sym->rname = _TRISB, size = 1
                      02948 ;;      694 register type nRegs=1
                      02949 ;;      line = 7129 result AOP_REG=r0x104B, size=1, left -=-, size=0, right AOP_DIR=_TRISB, size=1
                      02950 ;; ***  genCast  7253
                      02951 ;; >>> /home/sdcc-builder/build/sdcc-build/orig/sdcc/src/pic14/gen.c:7277:genCast
                      02952 ;;      1009
                      02953 ;;      1028  _TRISB   offset=0
028B                  02954 _00106_DS_
                      02955         .line   49; "ssd.c"     GPIO_InitPortPin(SSD_2_PORT_CR, SSD_2_PIN, GPIO_OUT);
028B   ???? ????      02956         BANKSEL _TRISB
028D   08??           02957         MOVF    _TRISB,W
                      02958 ;; >>> /home/sdcc-builder/build/sdcc-build/orig/sdcc/src/pic14/gen.c:7278:genCast
                      02959 ;;      1109 rIdx = r0x104B 
028E   ???? ????      02960         BANKSEL r0x102B
0290   00??           02961         MOVWF   r0x102B
                      02962 ;;; /home/sdcc-builder/build/sdcc-build/orig/sdcc/src/pic14/gen.c:2316:resultRemat *{*
                      02963 ;;; /home/sdcc-builder/build/sdcc-build/orig/sdcc/src/pic14/gen.c:3919:genAnd *{*
                      02964 ;; ***  genAnd  3920
                      02965 ;;      694 register type nRegs=1
                      02966 ;; ***  aopForSym 315
                      02967 ;;      327 sym->rname = _TRISB, size = 1
                      02968 ;;      line = 3955 result AOP_DIR=_TRISB, size=1, left AOP_REG=r0x104B, size=1, right AOP_LIT=0xbf, siz
                            e=1
                      02969 ;; >>> /home/sdcc-builder/build/sdcc-build/orig/sdcc/src/pic14/gen.c:4190:genAnd
0291   30BF           02970         MOVLW   0xbf
                      02971 ;; >>> /home/sdcc-builder/build/sdcc-build/orig/sdcc/src/pic14/gen.c:4191:genAnd
                      02972 ;;      1109 rIdx = r0x104B 
0292   05??           02973         ANDWF   r0x102B,W
                      02974 ;; >>> /home/sdcc-builder/build/sdcc-build/orig/sdcc/src/pic14/gen.c:4192:genAnd
                      02975 ;;      1009
                      02976 ;;      1028  _TRISB   offset=0
0293   ???? ????      02977         BANKSEL _TRISB
0295   00??           02978         MOVWF   _TRISB
                      02979 ;;; /home/sdcc-builder/build/sdcc-build/orig/sdcc/src/pic14/gen.c:2316:resultRemat *{*
                      02980 ;;; /home/sdcc-builder/build/sdcc-build/orig/sdcc/src/pic14/gen.c:2778:genGoto *{*
                      02981 ;; >>> /home/sdcc-builder/build/sdcc-build/orig/sdcc/src/pic14/gen.c:2780:genGoto
                      02982 ;; ***  popGetLabel  key=6, label offset 4
                      02983         .line   50; "ssd.c"     break;
gpasm-1.4.0 #1106 (Oct  6 2014) obj\Debug\ssd   1-13-2021  14:26:32         PAGE 58


LOC    OBJECT CODE    LINE  SOURCE TEXT
  VALUE

0296   2???           02984         GOTO    _00110_DS_
                      02985 ;;; /home/sdcc-builder/build/sdcc-build/orig/sdcc/src/pic14/gen.c:2316:resultRemat *{*
                      02986 ;;; /home/sdcc-builder/build/sdcc-build/orig/sdcc/src/pic14/gen.c:2760:genLabel *{*
                      02987 ;; ***  genLabel  2763
                      02988 ;;; /home/sdcc-builder/build/sdcc-build/orig/sdcc/src/pic14/gen.c:2316:resultRemat *{*
                      02989 ;;; /home/sdcc-builder/build/sdcc-build/orig/sdcc/src/pic14/gen.c:7120:genCast *{*
                      02990 ;; ***  genCast  7121
                      02991 ;; ***  aopForSym 315
                      02992 ;;      327 sym->rname = _TRISB, size = 1
                      02993 ;;      694 register type nRegs=1
                      02994 ;;      line = 7129 result AOP_REG=r0x104B, size=1, left -=-, size=0, right AOP_DIR=_TRISB, size=1
                      02995 ;; ***  genCast  7253
                      02996 ;; >>> /home/sdcc-builder/build/sdcc-build/orig/sdcc/src/pic14/gen.c:7277:genCast
                      02997 ;;      1009
                      02998 ;;      1028  _TRISB   offset=0
0297                  02999 _00107_DS_
                      03000         .line   52; "ssd.c"     GPIO_InitPortPin(SSD_3_PORT_CR, SSD_3_PIN, GPIO_OUT);
0297   ???? ????      03001         BANKSEL _TRISB
0299   08??           03002         MOVF    _TRISB,W
                      03003 ;; >>> /home/sdcc-builder/build/sdcc-build/orig/sdcc/src/pic14/gen.c:7278:genCast
                      03004 ;;      1109 rIdx = r0x104B 
029A   ???? ????      03005         BANKSEL r0x102B
029C   00??           03006         MOVWF   r0x102B
                      03007 ;;; /home/sdcc-builder/build/sdcc-build/orig/sdcc/src/pic14/gen.c:2316:resultRemat *{*
                      03008 ;;; /home/sdcc-builder/build/sdcc-build/orig/sdcc/src/pic14/gen.c:3919:genAnd *{*
                      03009 ;; ***  genAnd  3920
                      03010 ;;      694 register type nRegs=1
                      03011 ;; ***  aopForSym 315
                      03012 ;;      327 sym->rname = _TRISB, size = 1
                      03013 ;;      line = 3955 result AOP_DIR=_TRISB, size=1, left AOP_REG=r0x104B, size=1, right AOP_LIT=0xdf, siz
                            e=1
                      03014 ;; >>> /home/sdcc-builder/build/sdcc-build/orig/sdcc/src/pic14/gen.c:4190:genAnd
029D   30DF           03015         MOVLW   0xdf
                      03016 ;; >>> /home/sdcc-builder/build/sdcc-build/orig/sdcc/src/pic14/gen.c:4191:genAnd
                      03017 ;;      1109 rIdx = r0x104B 
029E   05??           03018         ANDWF   r0x102B,W
                      03019 ;; >>> /home/sdcc-builder/build/sdcc-build/orig/sdcc/src/pic14/gen.c:4192:genAnd
                      03020 ;;      1009
                      03021 ;;      1028  _TRISB   offset=0
029F   ???? ????      03022         BANKSEL _TRISB
02A1   00??           03023         MOVWF   _TRISB
                      03024 ;;; /home/sdcc-builder/build/sdcc-build/orig/sdcc/src/pic14/gen.c:2316:resultRemat *{*
                      03025 ;;; /home/sdcc-builder/build/sdcc-build/orig/sdcc/src/pic14/gen.c:2778:genGoto *{*
                      03026 ;; >>> /home/sdcc-builder/build/sdcc-build/orig/sdcc/src/pic14/gen.c:2780:genGoto
                      03027 ;; ***  popGetLabel  key=6, label offset 4
                      03028         .line   53; "ssd.c"     break;
02A2   2???           03029         GOTO    _00110_DS_
                      03030 ;;; /home/sdcc-builder/build/sdcc-build/orig/sdcc/src/pic14/gen.c:2316:resultRemat *{*
                      03031 ;;; /home/sdcc-builder/build/sdcc-build/orig/sdcc/src/pic14/gen.c:2760:genLabel *{*
                      03032 ;; ***  genLabel  2763
                      03033 ;;; /home/sdcc-builder/build/sdcc-build/orig/sdcc/src/pic14/gen.c:2316:resultRemat *{*
                      03034 ;;; /home/sdcc-builder/build/sdcc-build/orig/sdcc/src/pic14/gen.c:7120:genCast *{*
                      03035 ;; ***  genCast  7121
gpasm-1.4.0 #1106 (Oct  6 2014) obj\Debug\ssd   1-13-2021  14:26:32         PAGE 59


LOC    OBJECT CODE    LINE  SOURCE TEXT
  VALUE

                      03036 ;; ***  aopForSym 315
                      03037 ;;      327 sym->rname = _TRISB, size = 1
                      03038 ;;      694 register type nRegs=1
                      03039 ;;      line = 7129 result AOP_REG=r0x104B, size=1, left -=-, size=0, right AOP_DIR=_TRISB, size=1
                      03040 ;; ***  genCast  7253
                      03041 ;; >>> /home/sdcc-builder/build/sdcc-build/orig/sdcc/src/pic14/gen.c:7277:genCast
                      03042 ;;      1009
                      03043 ;;      1028  _TRISB   offset=0
02A3                  03044 _00108_DS_
                      03045         .line   55; "ssd.c"     GPIO_InitPortPin(SSD_4_PORT_CR, SSD_4_PIN, GPIO_OUT);
02A3   ???? ????      03046         BANKSEL _TRISB
02A5   08??           03047         MOVF    _TRISB,W
                      03048 ;; >>> /home/sdcc-builder/build/sdcc-build/orig/sdcc/src/pic14/gen.c:7278:genCast
                      03049 ;;      1109 rIdx = r0x104B 
02A6   ???? ????      03050         BANKSEL r0x102B
02A8   00??           03051         MOVWF   r0x102B
                      03052 ;;; /home/sdcc-builder/build/sdcc-build/orig/sdcc/src/pic14/gen.c:2316:resultRemat *{*
                      03053 ;;; /home/sdcc-builder/build/sdcc-build/orig/sdcc/src/pic14/gen.c:3919:genAnd *{*
                      03054 ;; ***  genAnd  3920
                      03055 ;;      694 register type nRegs=1
                      03056 ;; ***  aopForSym 315
                      03057 ;;      327 sym->rname = _TRISB, size = 1
                      03058 ;;      line = 3955 result AOP_DIR=_TRISB, size=1, left AOP_REG=r0x104B, size=1, right AOP_LIT=0xef, siz
                            e=1
                      03059 ;; >>> /home/sdcc-builder/build/sdcc-build/orig/sdcc/src/pic14/gen.c:4190:genAnd
02A9   30EF           03060         MOVLW   0xef
                      03061 ;; >>> /home/sdcc-builder/build/sdcc-build/orig/sdcc/src/pic14/gen.c:4191:genAnd
                      03062 ;;      1109 rIdx = r0x104B 
02AA   05??           03063         ANDWF   r0x102B,W
                      03064 ;; >>> /home/sdcc-builder/build/sdcc-build/orig/sdcc/src/pic14/gen.c:4192:genAnd
                      03065 ;;      1009
                      03066 ;;      1028  _TRISB   offset=0
02AB   ???? ????      03067         BANKSEL _TRISB
02AD   00??           03068         MOVWF   _TRISB
                      03069 ;;; /home/sdcc-builder/build/sdcc-build/orig/sdcc/src/pic14/gen.c:2316:resultRemat *{*
                      03070 ;;; /home/sdcc-builder/build/sdcc-build/orig/sdcc/src/pic14/gen.c:2760:genLabel *{*
                      03071 ;; ***  genLabel  2763
                      03072 ;;; /home/sdcc-builder/build/sdcc-build/orig/sdcc/src/pic14/gen.c:2316:resultRemat *{*
                      03073 ;;; /home/sdcc-builder/build/sdcc-build/orig/sdcc/src/pic14/gen.c:2316:resultRemat *{*
                      03074 ;;; /home/sdcc-builder/build/sdcc-build/orig/sdcc/src/pic14/gen.c:2316:resultRemat *{*
                      03075 ;;; /home/sdcc-builder/build/sdcc-build/orig/sdcc/src/pic14/gen.c:2086:genCall *{*
                      03076 ;; ***  genCall  2088
                      03077 ;;; /home/sdcc-builder/build/sdcc-build/orig/sdcc/src/pic14/gen.c:1801:saveRegisters *{*
                      03078 ;; ***  saveRegisters  1803
                      03079 ;;      694 register type nRegs=1
                      03080 ;;      694 register type nRegs=1
                      03081 ;;      694 register type nRegs=1
                      03082 ;;      2135 left AOP_REG
                      03083 ;;; /home/sdcc-builder/build/sdcc-build/orig/sdcc/src/pic14/gen.c:1343:mov2w_op *{*
                      03084 ;; ***  mov2w  1381  offset=0
                      03085 ;; >>> /home/sdcc-builder/build/sdcc-build/orig/sdcc/src/pic14/gen.c:1386:mov2w
                      03086 ;;      1109 rIdx = r0x1049 
02AE                  03087 _00110_DS_
gpasm-1.4.0 #1106 (Oct  6 2014) obj\Debug\ssd   1-13-2021  14:26:32         PAGE 60


LOC    OBJECT CODE    LINE  SOURCE TEXT
  VALUE

                      03088         .line   63; "ssd.c"     SSD_SetState(ssd, initial_state);
02AE   ???? ????      03089         BANKSEL r0x1029
02B0   08??           03090         MOVF    r0x1029,W
                      03091 ;;      694 register type nRegs=1
                      03092 ;;      2135 left AOP_REG
                      03093 ;; >>> /home/sdcc-builder/build/sdcc-build/orig/sdcc/src/pic14/gen.c:2143:genCall
                      03094 ;; ***  popRegFromIdx,1042  , rIdx=0x7f
02B1   00??           03095         MOVWF   STK00
                      03096 ;;; /home/sdcc-builder/build/sdcc-build/orig/sdcc/src/pic14/gen.c:1343:mov2w_op *{*
                      03097 ;; ***  mov2w  1381  offset=0
                      03098 ;; >>> /home/sdcc-builder/build/sdcc-build/orig/sdcc/src/pic14/gen.c:1386:mov2w
                      03099 ;;      1109 rIdx = r0x1048 
02B2   08??           03100         MOVF    r0x1028,W
                      03101 ;; >>> /home/sdcc-builder/build/sdcc-build/orig/sdcc/src/pic14/gen.c:2173:genCall
02B3   ???? ????      03102         PAGESEL _SSD_SetState
                      03103 ;; >>> /home/sdcc-builder/build/sdcc-build/orig/sdcc/src/pic14/gen.c:2175:genCall
02B5   2???           03104         CALL    _SSD_SetState
                      03105 ;; >>> /home/sdcc-builder/build/sdcc-build/orig/sdcc/src/pic14/gen.c:2181:genCall
02B6   ???? ????      03106         PAGESEL $
                      03107 ;;; /home/sdcc-builder/build/sdcc-build/orig/sdcc/src/pic14/gen.c:1845:unsaveRegisters *{*
                      03108 ;; ***  unsaveRegisters  1847
                      03109 ;;; /home/sdcc-builder/build/sdcc-build/orig/sdcc/src/pic14/gen.c:2316:resultRemat *{*
                      03110 ;;; /home/sdcc-builder/build/sdcc-build/orig/sdcc/src/pic14/gen.c:2316:resultRemat *{*
                      03111 ;;; /home/sdcc-builder/build/sdcc-build/orig/sdcc/src/pic14/gen.c:2316:resultRemat *{*
                      03112 ;;; /home/sdcc-builder/build/sdcc-build/orig/sdcc/src/pic14/gen.c:2086:genCall *{*
                      03113 ;; ***  genCall  2088
                      03114 ;;; /home/sdcc-builder/build/sdcc-build/orig/sdcc/src/pic14/gen.c:1801:saveRegisters *{*
                      03115 ;; ***  saveRegisters  1803
                      03116 ;;      694 register type nRegs=1
                      03117 ;;      694 register type nRegs=1
                      03118 ;;      694 register type nRegs=1
                      03119 ;;      2135 left AOP_REG
                      03120 ;;; /home/sdcc-builder/build/sdcc-build/orig/sdcc/src/pic14/gen.c:1343:mov2w_op *{*
                      03121 ;; ***  mov2w  1381  offset=0
                      03122 ;; >>> /home/sdcc-builder/build/sdcc-build/orig/sdcc/src/pic14/gen.c:1386:mov2w
                      03123 ;;      1109 rIdx = r0x104A 
                      03124         .line   66; "ssd.c"     SSD_SetSymbol(ssd, initial_symbol);
02B8   ???? ????      03125         BANKSEL r0x102A
02BA   08??           03126         MOVF    r0x102A,W
                      03127 ;;      694 register type nRegs=1
                      03128 ;;      2135 left AOP_REG
                      03129 ;; >>> /home/sdcc-builder/build/sdcc-build/orig/sdcc/src/pic14/gen.c:2143:genCall
                      03130 ;; ***  popRegFromIdx,1042  , rIdx=0x7f
02BB   00??           03131         MOVWF   STK00
                      03132 ;;; /home/sdcc-builder/build/sdcc-build/orig/sdcc/src/pic14/gen.c:1343:mov2w_op *{*
                      03133 ;; ***  mov2w  1381  offset=0
                      03134 ;; >>> /home/sdcc-builder/build/sdcc-build/orig/sdcc/src/pic14/gen.c:1386:mov2w
                      03135 ;;      1109 rIdx = r0x1048 
02BC   08??           03136         MOVF    r0x1028,W
                      03137 ;; >>> /home/sdcc-builder/build/sdcc-build/orig/sdcc/src/pic14/gen.c:2173:genCall
02BD   ???? ????      03138         PAGESEL _SSD_SetSymbol
                      03139 ;; >>> /home/sdcc-builder/build/sdcc-build/orig/sdcc/src/pic14/gen.c:2175:genCall
02BF   2???           03140         CALL    _SSD_SetSymbol
gpasm-1.4.0 #1106 (Oct  6 2014) obj\Debug\ssd   1-13-2021  14:26:32         PAGE 61


LOC    OBJECT CODE    LINE  SOURCE TEXT
  VALUE

                      03141 ;; >>> /home/sdcc-builder/build/sdcc-build/orig/sdcc/src/pic14/gen.c:2181:genCall
02C0   ???? ????      03142         PAGESEL $
                      03143 ;;; /home/sdcc-builder/build/sdcc-build/orig/sdcc/src/pic14/gen.c:1845:unsaveRegisters *{*
                      03144 ;; ***  unsaveRegisters  1847
                      03145 ;;; /home/sdcc-builder/build/sdcc-build/orig/sdcc/src/pic14/gen.c:2316:resultRemat *{*
                      03146 ;;; /home/sdcc-builder/build/sdcc-build/orig/sdcc/src/pic14/gen.c:2760:genLabel *{*
                      03147 ;; ***  genLabel  2763
                      03148 ;;; /home/sdcc-builder/build/sdcc-build/orig/sdcc/src/pic14/gen.c:2316:resultRemat *{*
                      03149 ;;; /home/sdcc-builder/build/sdcc-build/orig/sdcc/src/pic14/gen.c:2528:genEndFunction *{*
                      03150 ;; ***  genEndFunction  2530
02C2   0008           03151         RETURN  
                      03152 ; exit point of _SSD_Init
                      03153 ;;; /home/sdcc-builder/build/sdcc-build/orig/sdcc/src/pic14/gen.c:7426:genpic14Code *{*
                      03154 
                      03155 
                      03156 ;       code size estimation:
                      03157 ;         421+  143 =   564 instructions ( 1414 byte)
                      03158 
                      03159         end
gpasm-1.4.0 #1106 (Oct  6 2014) obj\Debug\ssd   1-13-2021  14:26:32         PAGE 62


SYMBOL TABLE
  LABEL                             VALUE

ACKDT                             00000005
ACKEN                             00000004
ACKSTAT                           00000006
ADCON0                            0000001F
ADCON1                            0000009F
ADCS0                             00000006
ADCS1                             00000007
ADCS2                             00000006
ADDEN                             00000003
ADFM                              00000007
ADIE                              00000006
ADIF                              00000006
ADON                              00000000
ADRESH                            0000001E
ADRESL                            0000009E
BCLIE                             00000003
BCLIF                             00000003
BF                                00000000
BRGH                              00000002
C                                 00000000
C1INV                             00000004
C1OUT                             00000006
C2INV                             00000005
C2OUT                             00000007
CCP1CON                           00000017
CCP1IE                            00000002
CCP1IF                            00000002
CCP1M0                            00000000
CCP1M1                            00000001
CCP1M2                            00000002
CCP1M3                            00000003
CCP1X                             00000005
CCP1Y                             00000004
CCP2CON                           0000001D
CCP2IE                            00000000
CCP2IF                            00000000
CCP2M0                            00000000
CCP2M1                            00000001
CCP2M2                            00000002
CCP2M3                            00000003
CCP2X                             00000005
CCP2Y                             00000004
CCPR1                             00000015
CCPR1H                            00000016
CCPR1L                            00000015
CCPR2                             0000001B
CCPR2H                            0000001C
CCPR2L                            0000001B
CHS0                              00000003
CHS1                              00000004
CHS2                              00000005
CIS                               00000003
CKE                               00000006
gpasm-1.4.0 #1106 (Oct  6 2014) obj\Debug\ssd   1-13-2021  14:26:32         PAGE 63


SYMBOL TABLE
  LABEL                             VALUE 

CKP                               00000004
CM0                               00000000
CM1                               00000001
CM2                               00000002
CMCON                             0000009C
CMIE                              00000006
CMIF                              00000006
CREN                              00000004
CSRC                              00000007
CVR0                              00000000
CVR1                              00000001
CVR2                              00000002
CVR3                              00000003
CVRCON                            0000009D
CVREN                             00000007
CVROE                             00000006
CVRR                              00000005
D                                 00000005
DATA_ADDRESS                      00000005
DC                                00000001
D_A                               00000005
D_NOT_A                           00000005
EEADR                             0000010D
EEADRH                            0000010F
EECON1                            0000018C
EECON2                            0000018D
EEDATA                            0000010C
EEDATH                            0000010E
EEIE                              00000004
EEIF                              00000004
EEPGD                             00000007
F                                 00000001
FERR                              00000002
FSR                               00000004
GCEN                              00000007
GIE                               00000007
GO                                00000002
GO_DONE                           00000002
GO_NOT_DONE                       00000002
I2C_DATA                          00000005
I2C_READ                          00000002
I2C_START                         00000003
I2C_STOP                          00000004
IBF                               00000007
IBOV                              00000005
INDF                              00000000
INTCON                            0000000B
INTE                              00000004
INTEDG                            00000006
INTF                              00000001
IRP                               00000007
NOT_A                             00000005
NOT_ADDRESS                       00000005
gpasm-1.4.0 #1106 (Oct  6 2014) obj\Debug\ssd   1-13-2021  14:26:32         PAGE 64


SYMBOL TABLE
  LABEL                             VALUE 

NOT_BO                            00000000
NOT_BOR                           00000000
NOT_DONE                          00000002
NOT_PD                            00000003
NOT_POR                           00000001
NOT_RBPU                          00000007
NOT_RC8                           00000006
NOT_T1SYNC                        00000002
NOT_TO                            00000004
NOT_TX8                           00000006
NOT_W                             00000002
NOT_WRITE                         00000002
OBF                               00000006
OERR                              00000001
OPTION_REG                        00000081
P                                 00000004
PCFG0                             00000000
PCFG1                             00000001
PCFG2                             00000002
PCFG3                             00000003
PCL                               00000002
PCLATH                            0000000A
PCON                              0000008E
PEIE                              00000006
PEN                               00000002
PIE1                              0000008C
PIE2                              0000008D
PIR1                              0000000C
PIR2                              0000000D
PORTA                             00000005
PORTB                             00000006
PORTC                             00000007
PORTD                             00000008
PORTE                             00000009
PR2                               00000092
PS0                               00000000
PS1                               00000001
PS2                               00000002
PSA                               00000003
PSAVE                             00000000
PSPIE                             00000007
PSPIF                             00000007
PSPMODE                           00000004
R                                 00000002
RA0                               00000000
RA1                               00000001
RA2                               00000002
RA3                               00000003
RA4                               00000004
RA5                               00000005
RB0                               00000000
RB1                               00000001
RB2                               00000002
gpasm-1.4.0 #1106 (Oct  6 2014) obj\Debug\ssd   1-13-2021  14:26:32         PAGE 65


SYMBOL TABLE
  LABEL                             VALUE 

RB3                               00000003
RB4                               00000004
RB5                               00000005
RB6                               00000006
RB7                               00000007
RBIE                              00000003
RBIF                              00000000
RC0                               00000000
RC1                               00000001
RC2                               00000002
RC3                               00000003
RC4                               00000004
RC5                               00000005
RC6                               00000006
RC7                               00000007
RC8_9                             00000006
RC9                               00000006
RCD8                              00000000
RCEN                              00000003
RCIE                              00000005
RCIF                              00000005
RCREG                             0000001A
RCSTA                             00000018
RD                                00000000
RD0                               00000000
RD1                               00000001
RD2                               00000002
RD3                               00000003
RD4                               00000004
RD5                               00000005
RD6                               00000006
RD7                               00000007
RE0                               00000000
RE1                               00000001
RE2                               00000002
READ_WRITE                        00000002
RP0                               00000005
RP1                               00000006
RSEN                              00000001
RX9                               00000006
RX9D                              00000000
R_NOT_W                           00000002
R_W                               00000002
S                                 00000003
SEN                               00000000
SMP                               00000007
SPBRG                             00000099
SPEN                              00000007
SREN                              00000005
SSAVE                             00000000
SSPADD                            00000093
SSPBUF                            00000013
SSPCON                            00000014
gpasm-1.4.0 #1106 (Oct  6 2014) obj\Debug\ssd   1-13-2021  14:26:32         PAGE 66


SYMBOL TABLE
  LABEL                             VALUE 

SSPCON2                           00000091
SSPEN                             00000005
SSPIE                             00000003
SSPIF                             00000003
SSPM0                             00000000
SSPM1                             00000001
SSPM2                             00000002
SSPM3                             00000003
SSPOV                             00000006
SSPSTAT                           00000094
STATUS                            00000003
STK00                             00000000
STK01                             00000000
STK02                             00000000
STK03                             00000000
STK04                             00000000
STK05                             00000000
STK06                             00000000
STK07                             00000000
STK08                             00000000
STK09                             00000000
STK10                             00000000
STK11                             00000000
STK12                             00000000
SYNC                              00000004
T0CS                              00000005
T0IE                              00000005
T0IF                              00000002
T0SE                              00000004
T1CKPS0                           00000004
T1CKPS1                           00000005
T1CON                             00000010
T1INSYNC                          00000002
T1OSCEN                           00000003
T1SYNC                            00000002
T2CKPS0                           00000000
T2CKPS1                           00000001
T2CON                             00000012
TMR0                              00000001
TMR0IE                            00000005
TMR0IF                            00000002
TMR1                              0000000E
TMR1CS                            00000001
TMR1H                             0000000F
TMR1IE                            00000000
TMR1IF                            00000000
TMR1L                             0000000E
TMR1ON                            00000000
TMR2                              00000011
TMR2IE                            00000001
TMR2IF                            00000001
TMR2ON                            00000002
TOUTPS0                           00000003
gpasm-1.4.0 #1106 (Oct  6 2014) obj\Debug\ssd   1-13-2021  14:26:32         PAGE 67


SYMBOL TABLE
  LABEL                             VALUE 

TOUTPS1                           00000004
TOUTPS2                           00000005
TOUTPS3                           00000006
TRISA                             00000085
TRISA0                            00000000
TRISA1                            00000001
TRISA2                            00000002
TRISA3                            00000003
TRISA4                            00000004
TRISA5                            00000005
TRISB                             00000086
TRISB0                            00000000
TRISB1                            00000001
TRISB2                            00000002
TRISB3                            00000003
TRISB4                            00000004
TRISB5                            00000005
TRISB6                            00000006
TRISB7                            00000007
TRISC                             00000087
TRISC0                            00000000
TRISC1                            00000001
TRISC2                            00000002
TRISC3                            00000003
TRISC4                            00000004
TRISC5                            00000005
TRISC6                            00000006
TRISC7                            00000007
TRISD                             00000088
TRISD0                            00000000
TRISD1                            00000001
TRISD2                            00000002
TRISD3                            00000003
TRISD4                            00000004
TRISD5                            00000005
TRISD6                            00000006
TRISD7                            00000007
TRISE                             00000089
TRISE0                            00000000
TRISE1                            00000001
TRISE2                            00000002
TRMT                              00000001
TX8_9                             00000006
TX9                               00000006
TX9D                              00000000
TXD8                              00000000
TXEN                              00000005
TXIE                              00000004
TXIF                              00000004
TXREG                             00000019
TXSTA                             00000098
UA                                00000001
W                                 00000000
gpasm-1.4.0 #1106 (Oct  6 2014) obj\Debug\ssd   1-13-2021  14:26:32         PAGE 68


SYMBOL TABLE
  LABEL                             VALUE 

WCOL                              00000007
WR                                00000001
WREN                              00000002
WRERR                             00000003
WSAVE                             00000000
Z                                 00000002
_00001_DS_                        0000000F
_00002_DS_                        0000006C
_00003_DS_                        000000D9
_00004_DS_                        0000013F
_00005_DS_                        0000022B
_00006_DS_                        0000027A
_00105_DS_                        0000027F
_00106_DS_                        0000028B
_00107_DS_                        00000297
_00108_DS_                        000002A3
_00110_DS_                        000002AE
_00117_DS_                        0000027B
_00123_DS_                        00000212
_00125_DS_                        0000022F
_00126_DS_                        0000023A
_00127_DS_                        00000243
_00129_DS_                        0000024B
_00131_DS_                        00000253
_00133_DS_                        00000256
_00148_DS_                        0000022C
_00169_DS_                        00000144
_00170_DS_                        00000155
_00171_DS_                        0000016A
_00172_DS_                        0000017D
_00175_DS_                        0000018C
_00181_DS_                        00000140
_00190_DS_                        000000DE
_00191_DS_                        000000E9
_00192_DS_                        000000F8
_00193_DS_                        00000105
_00195_DS_                        0000010F
_00202_DS_                        000000DA
_00208_DS_                        0000002C
_00211_DS_                        00000059
_00214_DS_                        00000089
_00217_DS_                        000000B6
_00220_DS_                        000000BD
_00224_DS_                        00000091
_00228_DS_                        00000060
_00232_DS_                        00000034
_00235_DS_                        000000C3
_ADCON0                           00000000
_ADCON0bits                       00000000
_ADCON1                           00000000
_ADCON1bits                       00000000
_ADRESH                           00000000
_ADRESL                           00000000
gpasm-1.4.0 #1106 (Oct  6 2014) obj\Debug\ssd   1-13-2021  14:26:32         PAGE 69


SYMBOL TABLE
  LABEL                             VALUE 

_BODEN_OFF                        00003FBF
_BODEN_ON                         00003FFF
_BOREN_OFF                        00003FBF
_BOREN_ON                         00003FFF
_CCP1CON                          00000000
_CCP1CONbits                      00000000
_CCP2CON                          00000000
_CCP2CONbits                      00000000
_CCPR1                            00000000
_CCPR1H                           00000000
_CCPR1L                           00000000
_CCPR2                            00000000
_CCPR2H                           00000000
_CCPR2L                           00000000
_CMCON                            00000000
_CMCONbits                        00000000
_CONFIG                           00002007
_CPD_OFF                          00003FFF
_CPD_ON                           00003EFF
_CP_ALL                           00001FFF
_CP_OFF                           00003FFF
_CP_ON                            00001FFF
_CVRCON                           00000000
_CVRCONbits                       00000000
_DEBUG_OFF                        00003FFF
_DEBUG_ON                         000037FF
_DEVID1                           00002006
_EEADR                            00000000
_EEADRH                           00000000
_EECON1                           00000000
_EECON1bits                       00000000
_EECON2                           00000000
_EEDATA                           00000000
_EEDATH                           00000000
_FOSC_EXTRC                       00003FFF
_FOSC_HS                          00003FFE
_FOSC_LP                          00003FFC
_FOSC_XT                          00003FFD
_FSR                              00000000
_HS_OSC                           00003FFE
_IDLOC0                           00002000
_IDLOC1                           00002001
_IDLOC2                           00002002
_IDLOC3                           00002003
_INDF                             00000000
_INTCON                           00000000
_INTCONbits                       00000000
_LP_OSC                           00003FFC
_LVP_OFF                          00003F7F
_LVP_ON                           00003FFF
_OPTION_REG                       00000000
_OPTION_REGbits                   00000000
_PCL                              00000000
gpasm-1.4.0 #1106 (Oct  6 2014) obj\Debug\ssd   1-13-2021  14:26:32         PAGE 70


SYMBOL TABLE
  LABEL                             VALUE 

_PCLATH                           00000000
_PCON                             00000000
_PCONbits                         00000000
_PIE1                             00000000
_PIE1bits                         00000000
_PIE2                             00000000
_PIE2bits                         00000000
_PIR1                             00000000
_PIR1bits                         00000000
_PIR2                             00000000
_PIR2bits                         00000000
_PORTA                            00000000
_PORTAbits                        00000000
_PORTB                            00000000
_PORTBbits                        00000000
_PORTC                            00000000
_PORTCbits                        00000000
_PORTD                            00000000
_PORTDbits                        00000000
_PORTE                            00000000
_PORTEbits                        00000000
_PR2                              00000000
_PWRTE_OFF                        00003FFF
_PWRTE_ON                         00003FF7
_RCREG                            00000000
_RCSTA                            00000000
_RCSTAbits                        00000000
_RC_OSC                           00003FFF
_SPBRG                            00000000
_SSD_DisplayToggle                00000000
_SSD_GetState                     000000C4
_SSD_GetSymbol                    00000113
_SSD_Init                         00000257
_SSD_SetLed                       0000018D
_SSD_SetMode                      000001AB
_SSD_SetState                     00000129
_SSD_SetSymbol                    00000191
_SSD_Update                       000001B3
_SSD_getCurrentSSD                000001AF
_SSPADD                           00000000
_SSPBUF                           00000000
_SSPCON                           00000000
_SSPCON2                          00000000
_SSPCON2bits                      00000000
_SSPCONbits                       00000000
_SSPSTAT                          00000000
_SSPSTATbits                      00000000
_STATUS                           00000000
_STATUSbits                       00000000
_T1CON                            00000000
_T1CONbits                        00000000
_T2CON                            00000000
_T2CONbits                        00000000
gpasm-1.4.0 #1106 (Oct  6 2014) obj\Debug\ssd   1-13-2021  14:26:32         PAGE 71


SYMBOL TABLE
  LABEL                             VALUE 

_TMR0                             00000000
_TMR1                             00000000
_TMR1H                            00000000
_TMR1L                            00000000
_TMR2                             00000000
_TRISA                            00000000
_TRISAbits                        00000000
_TRISB                            00000000
_TRISBbits                        00000000
_TRISC                            00000000
_TRISCbits                        00000000
_TRISD                            00000000
_TRISDbits                        00000000
_TRISE                            00000000
_TRISEbits                        00000000
_TXREG                            00000000
_TXSTA                            00000000
_TXSTAbits                        00000000
_UTIL_DelayMS                     00000000
_WDTE_OFF                         00003FFB
_WDTE_ON                          00003FFF
_WDT_OFF                          00003FFB
_WDT_ON                           00003FFF
_WRT_1FOURTH                      00003BFF
_WRT_256                          00003DFF
_WRT_HALF                         000039FF
_WRT_OFF                          00003FFF
_XT_OSC                           00003FFD
__16F877A                         00000001
__CODE_END                        00001FFF
__CODE_START                      00000000
__COMMON_RAM_END                  0000007F
__COMMON_RAM_START                00000070
__EEPROM_END                      000021FF
__EEPROM_START                    00002100
__VECTOR_INT                      00000004
__VECTOR_RESET                    00000000
_code_ssd_01B9                    000001B9
_code_ssd_01C1                    000001C1
_code_ssd_01C9                    000001C9
_code_ssd_01D1                    000001D1
_code_ssd_0237                    00000237
_code_ssd_0240                    00000240
_code_ssd_0249                    00000249
_code_ssd_02B6                    000002B6
_code_ssd_02C0                    000002C0
_current_mode                     00000000
_current_ssd                      00000000
_led                              00000000
_period                           00000000
_ssd_data                         00000000
_ssd_symbols                      00000000
_toggle                           00000000
gpasm-1.4.0 #1106 (Oct  6 2014) obj\Debug\ssd   1-13-2021  14:26:32         PAGE 72


SYMBOL TABLE
  LABEL                             VALUE 

r0x1016                           0000000A
r0x1017                           0000000B
r0x1018                           0000000C
r0x1019                           0000000D
r0x101A                           00000012
r0x101B                           00000013
r0x101C                           00000014
r0x101D                           00000010
r0x101E                           00000011
r0x101F                           0000000E
r0x1020                           0000000F
r0x1022                           00000007
r0x1023                           00000008
r0x1024                           00000009
r0x1025                           00000004
r0x1026                           00000005
r0x1027                           00000006
r0x1028                           00000000
r0x1029                           00000001
r0x102A                           00000002
r0x102B                           00000003

Errors   :     0
Warnings :     0 reported,     0 suppressed
Messages :     0 reported,     0 suppressed

