gpasm-1.4.0 #1106 (Oct  6 2014) obj\Debug\gpi   6-23-2020  11:52:00         PAGE  1


LOC    OBJECT CODE    LINE  SOURCE TEXT
  VALUE

                      00001 ;--------------------------------------------------------
                      00002 ; File Created by SDCC : free open source ANSI-C Compiler
                      00003 ; Version 3.5.0 #9253 (Jun 20 2015) (MINGW32)
                      00004 ; This file was generated Tue Jun 23 11:52:00 2020
                      00005 ;--------------------------------------------------------
                      00006 ; PIC port for the 14-bit core
                      00007 ;--------------------------------------------------------
                      00008         .file   "gpio.c"
                      00009         list    p=16f877a
                      00010         radix dec
                      00011         include "p16f877a.inc"
                      00001         LIST
                      00002 
                      00003 ;==========================================================================
                      00004 ; Build date : Aug 07 2014
                      00005 ;  MPASM PIC16F877A processor include
                      00006 ; 
                      00007 ;  (c) Copyright 1999-2014 Microchip Technology, All rights reserved
                      00008 ;==========================================================================
                      00009 
                      00567         LIST
                      00012 ;--------------------------------------------------------
                      00013 ; external declarations
                      00014 ;--------------------------------------------------------
  0000                00015         extern  _STATUSbits
  0000                00016         extern  _PORTAbits
  0000                00017         extern  _PORTBbits
  0000                00018         extern  _PORTCbits
  0000                00019         extern  _PORTDbits
  0000                00020         extern  _PORTEbits
  0000                00021         extern  _INTCONbits
  0000                00022         extern  _PIR1bits
  0000                00023         extern  _PIR2bits
  0000                00024         extern  _T1CONbits
  0000                00025         extern  _T2CONbits
  0000                00026         extern  _SSPCONbits
  0000                00027         extern  _CCP1CONbits
  0000                00028         extern  _RCSTAbits
  0000                00029         extern  _CCP2CONbits
  0000                00030         extern  _ADCON0bits
  0000                00031         extern  _OPTION_REGbits
  0000                00032         extern  _TRISAbits
  0000                00033         extern  _TRISBbits
  0000                00034         extern  _TRISCbits
  0000                00035         extern  _TRISDbits
  0000                00036         extern  _TRISEbits
  0000                00037         extern  _PIE1bits
  0000                00038         extern  _PIE2bits
  0000                00039         extern  _PCONbits
  0000                00040         extern  _SSPCON2bits
  0000                00041         extern  _SSPSTATbits
  0000                00042         extern  _TXSTAbits
  0000                00043         extern  _CMCONbits
gpasm-1.4.0 #1106 (Oct  6 2014) obj\Debug\gpi   6-23-2020  11:52:00         PAGE  2


LOC    OBJECT CODE    LINE  SOURCE TEXT
  VALUE

  0000                00044         extern  _CVRCONbits
  0000                00045         extern  _ADCON1bits
  0000                00046         extern  _EECON1bits
  0000                00047         extern  _INDF
  0000                00048         extern  _TMR0
  0000                00049         extern  _PCL
  0000                00050         extern  _STATUS
  0000                00051         extern  _FSR
  0000                00052         extern  _PORTA
  0000                00053         extern  _PORTB
  0000                00054         extern  _PORTC
  0000                00055         extern  _PORTD
  0000                00056         extern  _PORTE
  0000                00057         extern  _PCLATH
  0000                00058         extern  _INTCON
  0000                00059         extern  _PIR1
  0000                00060         extern  _PIR2
  0000                00061         extern  _TMR1
  0000                00062         extern  _TMR1L
  0000                00063         extern  _TMR1H
  0000                00064         extern  _T1CON
  0000                00065         extern  _TMR2
  0000                00066         extern  _T2CON
  0000                00067         extern  _SSPBUF
  0000                00068         extern  _SSPCON
  0000                00069         extern  _CCPR1
  0000                00070         extern  _CCPR1L
  0000                00071         extern  _CCPR1H
  0000                00072         extern  _CCP1CON
  0000                00073         extern  _RCSTA
  0000                00074         extern  _TXREG
  0000                00075         extern  _RCREG
  0000                00076         extern  _CCPR2
  0000                00077         extern  _CCPR2L
  0000                00078         extern  _CCPR2H
  0000                00079         extern  _CCP2CON
  0000                00080         extern  _ADRESH
  0000                00081         extern  _ADCON0
  0000                00082         extern  _OPTION_REG
  0000                00083         extern  _TRISA
  0000                00084         extern  _TRISB
  0000                00085         extern  _TRISC
  0000                00086         extern  _TRISD
  0000                00087         extern  _TRISE
  0000                00088         extern  _PIE1
  0000                00089         extern  _PIE2
  0000                00090         extern  _PCON
  0000                00091         extern  _SSPCON2
  0000                00092         extern  _PR2
  0000                00093         extern  _SSPADD
  0000                00094         extern  _SSPSTAT
  0000                00095         extern  _TXSTA
  0000                00096         extern  _SPBRG
gpasm-1.4.0 #1106 (Oct  6 2014) obj\Debug\gpi   6-23-2020  11:52:00         PAGE  3


LOC    OBJECT CODE    LINE  SOURCE TEXT
  VALUE

  0000                00097         extern  _CMCON
  0000                00098         extern  _CVRCON
  0000                00099         extern  _ADRESL
  0000                00100         extern  _ADCON1
  0000                00101         extern  _EEDATA
  0000                00102         extern  _EEADR
  0000                00103         extern  _EEDATH
  0000                00104         extern  _EEADRH
  0000                00105         extern  _EECON1
  0000                00106         extern  _EECON2
                      00107 
  0000                00108         extern PSAVE
  0000                00109         extern SSAVE
  0000                00110         extern WSAVE
  0000                00111         extern STK12
  0000                00112         extern STK11
  0000                00113         extern STK10
  0000                00114         extern STK09
  0000                00115         extern STK08
  0000                00116         extern STK07
  0000                00117         extern STK06
  0000                00118         extern STK05
  0000                00119         extern STK04
  0000                00120         extern STK03
  0000                00121         extern STK02
  0000                00122         extern STK01
  0000                00123         extern STK00
                      00124 ;--------------------------------------------------------
                      00125 ; global declarations
                      00126 ;--------------------------------------------------------
  0000                00127         global  _GPIO_GetPortPinState
  0000                00128         global  _GPIO_SetPortState
  0000                00129         global  _GPIO_SetPortPinState
  0000                00130         global  _GPIO_Update
  0000                00131         global  _GPIO_InitPort
  0000                00132         global  _GPIO_InitPortPin
                      00133 
                      00134 ;--------------------------------------------------------
                      00135 ; global definitions
                      00136 ;--------------------------------------------------------
                      00137 ;--------------------------------------------------------
                      00138 ; absolute symbol definitions
                      00139 ;--------------------------------------------------------
                      00140 ;--------------------------------------------------------
                      00141 ; compiler-defined variables
                      00142 ;--------------------------------------------------------
                      00143 UDL_gpio_0      udata
0000                  00144 r0x1011 res     1
0001                  00145 r0x1012 res     1
0002                  00146 r0x1013 res     1
0003                  00147 r0x1014 res     1
0004                  00148 r0x1015 res     1
0005                  00149 r0x1016 res     1
gpasm-1.4.0 #1106 (Oct  6 2014) obj\Debug\gpi   6-23-2020  11:52:00         PAGE  4


LOC    OBJECT CODE    LINE  SOURCE TEXT
  VALUE

0006                  00150 r0x1017 res     1
0007                  00151 r0x1006 res     1
0008                  00152 r0x1007 res     1
0009                  00153 r0x1008 res     1
000A                  00154 r0x1009 res     1
000B                  00155 r0x100A res     1
000C                  00156 r0x100B res     1
000D                  00157 r0x100C res     1
000E                  00158 r0x100E res     1
000F                  00159 r0x100D res     1
0010                  00160 r0x100F res     1
0011                  00161 r0x1010 res     1
0012                  00162 r0x1000 res     1
0013                  00163 r0x1001 res     1
0014                  00164 r0x1002 res     1
0015                  00165 r0x1003 res     1
0016                  00166 r0x1004 res     1
0017                  00167 r0x1005 res     1
                      00168 ;--------------------------------------------------------
                      00169 ; initialized data
                      00170 ;--------------------------------------------------------
                      00171 ;--------------------------------------------------------
                      00172 ; overlayable items in internal ram 
                      00173 ;--------------------------------------------------------
                      00174 ;       udata_ovr
                      00175 ;--------------------------------------------------------
                      00176 ; code
                      00177 ;--------------------------------------------------------
                      00178 code_gpio       code
                      00179 ;***
                      00180 ;  pBlock Stats: dbName = C
                      00181 ;***
                      00182 ;entry:  _GPIO_GetPortPinState  ;Function start
                      00183 ; 2 exit points
                      00184 ;has an exit
                      00185 ;7 compiler assigned registers:
                      00186 ;   r0x1000
                      00187 ;   STK00
                      00188 ;   r0x1001
                      00189 ;   r0x1002
                      00190 ;   r0x1003
                      00191 ;   r0x1004
                      00192 ;   r0x1005
                      00193 ;; Starting pCode block
                      00194 ;;; /home/sdcc-builder/build/sdcc-build/orig/sdcc/src/pic14/gen.c:2316:resultRemat *{*
                      00195 ;;; /home/sdcc-builder/build/sdcc-build/orig/sdcc/src/pic14/gen.c:2760:genLabel *{*
                      00196 ;; ***  genLabel  2763
                      00197 ;;; /home/sdcc-builder/build/sdcc-build/orig/sdcc/src/pic14/gen.c:2316:resultRemat *{*
                      00198 ;;; /home/sdcc-builder/build/sdcc-build/orig/sdcc/src/pic14/gen.c:2340:genFunction *{*
                      00199 ;; ***  genFunction  2342 curr label offset=88previous max_key=13 
0000                  00200 _GPIO_GetPortPinState   ;Function start
                      00201 ; 2 exit points
                      00202 ;;; /home/sdcc-builder/build/sdcc-build/orig/sdcc/src/pic14/gen.c:2316:resultRemat *{*
gpasm-1.4.0 #1106 (Oct  6 2014) obj\Debug\gpi   6-23-2020  11:52:00         PAGE  5


LOC    OBJECT CODE    LINE  SOURCE TEXT
  VALUE

                      00203 ;;; /home/sdcc-builder/build/sdcc-build/orig/sdcc/src/pic14/gen.c:7358:genReceive *{*
                      00204 ;; ***  genReceive  7359
                      00205 ;;      694 register type nRegs=1
                      00206 ;;; /home/sdcc-builder/build/sdcc-build/orig/sdcc/src/pic14/gen.c:1907:assignResultValue *{*
                      00207 ;; ***  assignResultValue  1909
                      00208 ;;      line = 1911 result -=-, size=0, left AOP_REG=r0x105B, size=1, right -=-, size=0
                      00209 ;; >>> /home/sdcc-builder/build/sdcc-build/orig/sdcc/src/pic14/gen.c:1393:movwf
                      00210 ;;      1109 rIdx = r0x105B 
                      00211         .line   78; "gpio.c"    unsigned char GPIO_GetPortPinState(tPort port, unsigned char pin)
0000   ???? ????      00212         BANKSEL r0x1000
0002   00??           00213         MOVWF   r0x1000
                      00214 ;;; /home/sdcc-builder/build/sdcc-build/orig/sdcc/src/pic14/gen.c:2316:resultRemat *{*
                      00215 ;;; /home/sdcc-builder/build/sdcc-build/orig/sdcc/src/pic14/gen.c:7358:genReceive *{*
                      00216 ;; ***  genReceive  7359
                      00217 ;;      694 register type nRegs=1
                      00218 ;;; /home/sdcc-builder/build/sdcc-build/orig/sdcc/src/pic14/gen.c:1907:assignResultValue *{*
                      00219 ;; ***  assignResultValue  1909
                      00220 ;;      line = 1911 result -=-, size=0, left AOP_REG=r0x105C, size=1, right -=-, size=0
                      00221 ;; >>> /home/sdcc-builder/build/sdcc-build/orig/sdcc/src/pic14/gen.c:1423:get_returnvalue
                      00222 ;; ***  popRegFromIdx,1042  , rIdx=0x7f
0003   08??           00223         MOVF    STK00,W
                      00224 ;; >>> /home/sdcc-builder/build/sdcc-build/orig/sdcc/src/pic14/gen.c:1393:movwf
                      00225 ;;      1109 rIdx = r0x105C 
0004   00??           00226         MOVWF   r0x1001
                      00227 ;;; /home/sdcc-builder/build/sdcc-build/orig/sdcc/src/pic14/gen.c:2316:resultRemat *{*
                      00228 ;;; /home/sdcc-builder/build/sdcc-build/orig/sdcc/src/pic14/gen.c:6927:genAssign *{*
                      00229 ;; ***  genAssign  6928
                      00230 ;;      694 register type nRegs=1
                      00231 ;;      line = 6937 result AOP_REG=r0x105D, size=1, left -=-, size=0, right AOP_LIT=0x00, size=1
                      00232 ;; ***  genAssign  7023
                      00233 ;; >>> /home/sdcc-builder/build/sdcc-build/orig/sdcc/src/pic14/gen.c:7035:genAssign
                      00234 ;;      1109 rIdx = r0x105D 
                      00235         .line   80; "gpio.c"    unsigned char ret = 0;
0005   01??           00236         CLRF    r0x1002
                      00237 ;;; /home/sdcc-builder/build/sdcc-build/orig/sdcc/src/pic14/gen.c:2316:resultRemat *{*
                      00238 ;;; /home/sdcc-builder/build/sdcc-build/orig/sdcc/src/pic14/gen.c:3547:genCmpGt *{*
                      00239 ;; ***  genCmpGt  3548
                      00240 ;;      694 register type nRegs=1
                      00241 ;;; /home/sdcc-builder/build/sdcc-build/orig/sdcc/src/pic14/gen.c:3294:genCmp *{*
                      00242 ;;swapping arguments (AOP_TYPEs 1/2)
                      00243 ;;unsigned compare: left >= lit(0x5=5), size=1
                      00244 ;; >>> /home/sdcc-builder/build/sdcc-build/orig/sdcc/src/pic14/gen.c:3265:pic14_mov2w_regOrLit
                      00245         .line   82; "gpio.c"    switch(port)
0006   3005           00246         MOVLW   0x05
                      00247 ;; >>> /home/sdcc-builder/build/sdcc-build/orig/sdcc/src/pic14/gen.c:3432:genCmp
                      00248 ;;      1109 rIdx = r0x105B 
0007   02??           00249         SUBWF   r0x1000,W
                      00250 ;;; /home/sdcc-builder/build/sdcc-build/orig/sdcc/src/pic14/gen.c:3237:genSkipc *{*
                      00251 ;; >>> /home/sdcc-builder/build/sdcc-build/orig/sdcc/src/pic14/gen.c:3242:genSkipc
0008   1803           00252         BTFSC   STATUS,0
                      00253 ;; >>> /home/sdcc-builder/build/sdcc-build/orig/sdcc/src/pic14/gen.c:3246:genSkipc
                      00254 ;; ***  popGetLabel  key=6, label offset 105
0009   2???           00255         GOTO    _00211_DS_
gpasm-1.4.0 #1106 (Oct  6 2014) obj\Debug\gpi   6-23-2020  11:52:00         PAGE  6


LOC    OBJECT CODE    LINE  SOURCE TEXT
  VALUE

                      00256 ;;genSkipc:3247: created from rifx:027A5DF4
                      00257 ;;; /home/sdcc-builder/build/sdcc-build/orig/sdcc/src/pic14/gen.c:2316:resultRemat *{*
                      00258 ;;; /home/sdcc-builder/build/sdcc-build/orig/sdcc/src/pic14/gen.c:2316:resultRemat *{*
                      00259 ;;; /home/sdcc-builder/build/sdcc-build/orig/sdcc/src/pic14/gen.c:7071:genJumpTab *{*
                      00260 ;; ***  genJumpTab  7072
                      00261 ;;      694 register type nRegs=1
                      00262 ;; >>> /home/sdcc-builder/build/sdcc-build/orig/sdcc/src/pic14/gen.c:7087:genJumpTab
                      00263 ;; ***  popGetLabel  key=13, label offset 105
000A   30??           00264         MOVLW   HIGH(_00218_DS_)
                      00265 ;; >>> /home/sdcc-builder/build/sdcc-build/orig/sdcc/src/pic14/gen.c:7088:genJumpTab
000B   1283 1303      00266         BANKSEL PCLATH
000D   008A           00267         MOVWF   PCLATH
                      00268 ;; >>> /home/sdcc-builder/build/sdcc-build/orig/sdcc/src/pic14/gen.c:7089:genJumpTab
                      00269 ;; ***  popGetLabel  key=13, label offset 105
000E   30??           00270         MOVLW   _00218_DS_
                      00271 ;; >>> /home/sdcc-builder/build/sdcc-build/orig/sdcc/src/pic14/gen.c:7090:genJumpTab
                      00272 ;;      1109 rIdx = r0x105B 
000F   ???? ????      00273         BANKSEL r0x1000
0011   07??           00274         ADDWF   r0x1000,W
                      00275 ;; >>> /home/sdcc-builder/build/sdcc-build/orig/sdcc/src/pic14/gen.c:7091:genJumpTab
0012   1C03           00276         BTFSS   STATUS,0
0013   2???           00277         GOTO    _00001_DS_
                      00278 ;; >>> /home/sdcc-builder/build/sdcc-build/orig/sdcc/src/pic14/gen.c:7092:genJumpTab
0014   1283 1303      00279         BANKSEL PCLATH
0016   0A8A           00280         INCF    PCLATH,F
                      00281 ;; >>> /home/sdcc-builder/build/sdcc-build/orig/sdcc/src/pic14/gen.c:7093:genJumpTab
0017                  00282 _00001_DS_
0017   0082           00283         MOVWF   PCL
                      00284 ;; >>> /home/sdcc-builder/build/sdcc-build/orig/sdcc/src/pic14/gen.c:7102:genJumpTab
                      00285 ;; ***  popGetLabel  key=1, label offset 105
0018                  00286 _00218_DS_
0018   2???           00287         GOTO    _00206_DS_
                      00288 ;; >>> /home/sdcc-builder/build/sdcc-build/orig/sdcc/src/pic14/gen.c:7102:genJumpTab
                      00289 ;; ***  popGetLabel  key=2, label offset 105
0019   2???           00290         GOTO    _00207_DS_
                      00291 ;; >>> /home/sdcc-builder/build/sdcc-build/orig/sdcc/src/pic14/gen.c:7102:genJumpTab
                      00292 ;; ***  popGetLabel  key=3, label offset 105
001A   2???           00293         GOTO    _00208_DS_
                      00294 ;; >>> /home/sdcc-builder/build/sdcc-build/orig/sdcc/src/pic14/gen.c:7102:genJumpTab
                      00295 ;; ***  popGetLabel  key=4, label offset 105
001B   2???           00296         GOTO    _00209_DS_
                      00297 ;; >>> /home/sdcc-builder/build/sdcc-build/orig/sdcc/src/pic14/gen.c:7102:genJumpTab
                      00298 ;; ***  popGetLabel  key=5, label offset 105
001C   2???           00299         GOTO    _00210_DS_
                      00300 ;;; /home/sdcc-builder/build/sdcc-build/orig/sdcc/src/pic14/gen.c:2316:resultRemat *{*
                      00301 ;;; /home/sdcc-builder/build/sdcc-build/orig/sdcc/src/pic14/gen.c:2760:genLabel *{*
                      00302 ;; ***  genLabel  2763
                      00303 ;;; /home/sdcc-builder/build/sdcc-build/orig/sdcc/src/pic14/gen.c:2316:resultRemat *{*
                      00304 ;;; /home/sdcc-builder/build/sdcc-build/orig/sdcc/src/pic14/gen.c:5418:genGenericShift *{*
                      00305 ;; ***  genGenericShift  5421
                      00306 ;;      694 register type nRegs=1
                      00307 ;;      694 register type nRegs=2
                      00308 ;; ***  mov2w  1381  offset=1
gpasm-1.4.0 #1106 (Oct  6 2014) obj\Debug\gpi   6-23-2020  11:52:00         PAGE  7


LOC    OBJECT CODE    LINE  SOURCE TEXT
  VALUE

                      00309 ;; >>> /home/sdcc-builder/build/sdcc-build/orig/sdcc/src/pic14/gen.c:1384:mov2w
001D                  00310 _00206_DS_
                      00311         .line   85; "gpio.c"    ret =  READ_REGISTER_PIN(PORTA, pin);
001D   3000           00312         MOVLW   0x00
                      00313 ;; >>> /home/sdcc-builder/build/sdcc-build/orig/sdcc/src/pic14/gen.c:1393:movwf
                      00314 ;;      1109 rIdx = r0x105E 
001E   ???? ????      00315         BANKSEL r0x1003
0020   00??           00316         MOVWF   r0x1003
                      00317 ;; ***  mov2w  1381  offset=0
                      00318 ;; >>> /home/sdcc-builder/build/sdcc-build/orig/sdcc/src/pic14/gen.c:1384:mov2w
0021   3001           00319         MOVLW   0x01
                      00320 ;; >>> /home/sdcc-builder/build/sdcc-build/orig/sdcc/src/pic14/gen.c:1393:movwf
                      00321 ;;      1109 rIdx = r0x105B 
0022   00??           00322         MOVWF   r0x1000
                      00323 ;; ***  addSign  861
                      00324 ;;; /home/sdcc-builder/build/sdcc-build/orig/sdcc/src/pic14/genarith.c:862:addSign *{*
                      00325 ;; ***  mov2w  1381  offset=0
                      00326 ;; >>> /home/sdcc-builder/build/sdcc-build/orig/sdcc/src/pic14/gen.c:1386:mov2w
                      00327 ;;      1109 rIdx = r0x105C 
0023   08??           00328         MOVF    r0x1001,W
                      00329 ;; >>> /home/sdcc-builder/build/sdcc-build/orig/sdcc/src/pic14/gen.c:5492:genGenericShift
0024   3C00           00330         SUBLW   0x00
                      00331 ;; >>> /home/sdcc-builder/build/sdcc-build/orig/sdcc/src/pic14/gen.c:5494:genGenericShift
0025   1903           00332         BTFSC   STATUS,2
                      00333 ;; >>> /home/sdcc-builder/build/sdcc-build/orig/sdcc/src/pic14/gen.c:5495:genGenericShift
                      00334 ;; ***  popGetLabel  key=15, label offset 105
0026   2???           00335         GOTO    _00220_DS_
                      00336 ;;; /home/sdcc-builder/build/sdcc-build/orig/sdcc/src/pic14/gen.c:5369:genMultiAsm *{*
                      00337 ;; ***  genMultiAsm  5370
                      00338 ;; >>> /home/sdcc-builder/build/sdcc-build/orig/sdcc/src/pic14/gen.c:5387:genMultiAsm
                      00339 ;;      1109 rIdx = r0x105B 
0027                  00340 _00219_DS_
0027   ???? ????      00341         BANKSEL r0x1000
0029   0D??           00342         RLF     r0x1000,F
                      00343 ;; >>> /home/sdcc-builder/build/sdcc-build/orig/sdcc/src/pic14/gen.c:5387:genMultiAsm
                      00344 ;;      1109 rIdx = r0x105E 
002A   0D??           00345         RLF     r0x1003,F
                      00346 ;; >>> /home/sdcc-builder/build/sdcc-build/orig/sdcc/src/pic14/gen.c:5501:genGenericShift
002B   3E01           00347         ADDLW   0x01
                      00348 ;; >>> /home/sdcc-builder/build/sdcc-build/orig/sdcc/src/pic14/gen.c:5502:genGenericShift
002C   1C03           00349         BTFSS   STATUS,0
                      00350 ;; >>> /home/sdcc-builder/build/sdcc-build/orig/sdcc/src/pic14/gen.c:5503:genGenericShift
                      00351 ;; ***  popGetLabel  key=14, label offset 105
002D   2???           00352         GOTO    _00219_DS_
                      00353 ;;; /home/sdcc-builder/build/sdcc-build/orig/sdcc/src/pic14/gen.c:2316:resultRemat *{*
                      00354 ;;; /home/sdcc-builder/build/sdcc-build/orig/sdcc/src/pic14/gen.c:7120:genCast *{*
                      00355 ;; ***  genCast  7121
                      00356 ;; ***  aopForSym 315
                      00357 ;;      327 sym->rname = _PORTA, size = 1
                      00358 ;;      694 register type nRegs=2
                      00359 ;;      line = 7129 result AOP_REG=r0x105F, size=2, left -=-, size=0, right AOP_DIR=_PORTA, size=1
                      00360 ;; >>> /home/sdcc-builder/build/sdcc-build/orig/sdcc/src/pic14/gen.c:7298:genCast
                      00361 ;;      1009
gpasm-1.4.0 #1106 (Oct  6 2014) obj\Debug\gpi   6-23-2020  11:52:00         PAGE  8


LOC    OBJECT CODE    LINE  SOURCE TEXT
  VALUE

                      00362 ;;      1028  _PORTA   offset=0
002E                  00363 _00220_DS_
002E   ???? ????      00364         BANKSEL _PORTA
0030   08??           00365         MOVF    _PORTA,W
                      00366 ;; >>> /home/sdcc-builder/build/sdcc-build/orig/sdcc/src/pic14/gen.c:7299:genCast
                      00367 ;;      1109 rIdx = r0x105F 
0031   ???? ????      00368         BANKSEL r0x1004
0033   00??           00369         MOVWF   r0x1004
                      00370 ;; ***  addSign  861
                      00371 ;;; /home/sdcc-builder/build/sdcc-build/orig/sdcc/src/pic14/genarith.c:862:addSign *{*
                      00372 ;; >>> /home/sdcc-builder/build/sdcc-build/orig/sdcc/src/pic14/genarith.c:881:addSign
                      00373 ;;      1109 rIdx = r0x1060 
0034   01??           00374         CLRF    r0x1005
                      00375 ;;; /home/sdcc-builder/build/sdcc-build/orig/sdcc/src/pic14/gen.c:2316:resultRemat *{*
                      00376 ;;; /home/sdcc-builder/build/sdcc-build/orig/sdcc/src/pic14/gen.c:3919:genAnd *{*
                      00377 ;; ***  genAnd  3920
                      00378 ;;      694 register type nRegs=2
                      00379 ;;      694 register type nRegs=2
                      00380 ;;      694 register type nRegs=2
                      00381 ;;      line = 3955 result AOP_REG=r0x105B, size=2, left AOP_REG=r0x105B, size=2, right AOP_REG=r0x105F,
                             size=2
                      00382 ;; >>> /home/sdcc-builder/build/sdcc-build/orig/sdcc/src/pic14/gen.c:4137:genAnd
                      00383 ;;      1109 rIdx = r0x105F 
0035   08??           00384         MOVF    r0x1004,W
                      00385 ;; >>> /home/sdcc-builder/build/sdcc-build/orig/sdcc/src/pic14/gen.c:4138:genAnd
                      00386 ;;      1109 rIdx = r0x105B 
0036   05??           00387         ANDWF   r0x1000,F
                      00388 ;; >>> /home/sdcc-builder/build/sdcc-build/orig/sdcc/src/pic14/gen.c:4137:genAnd
                      00389 ;;      1109 rIdx = r0x1060 
0037   3000           00390         MOVLW   0x00
                      00391 ;; >>> /home/sdcc-builder/build/sdcc-build/orig/sdcc/src/pic14/gen.c:4138:genAnd
                      00392 ;;      1109 rIdx = r0x105E 
0038   05??           00393         ANDWF   r0x1003,F
                      00394 ;;; /home/sdcc-builder/build/sdcc-build/orig/sdcc/src/pic14/gen.c:2316:resultRemat *{*
                      00395 ;;; /home/sdcc-builder/build/sdcc-build/orig/sdcc/src/pic14/gen.c:5418:genGenericShift *{*
                      00396 ;; ***  genGenericShift  5421
                      00397 ;;      694 register type nRegs=1
                      00398 ;;      694 register type nRegs=2
                      00399 ;;      694 register type nRegs=2
                      00400 ;; ***  mov2w  1381  offset=1
                      00401 ;; >>> /home/sdcc-builder/build/sdcc-build/orig/sdcc/src/pic14/gen.c:1386:mov2w
                      00402 ;;      1109 rIdx = r0x105E 
0039   08??           00403         MOVF    r0x1003,W
                      00404 ;; >>> /home/sdcc-builder/build/sdcc-build/orig/sdcc/src/pic14/gen.c:1393:movwf
                      00405 ;;      1109 rIdx = r0x1060 
003A   00??           00406         MOVWF   r0x1005
                      00407 ;; ***  mov2w  1381  offset=0
                      00408 ;; >>> /home/sdcc-builder/build/sdcc-build/orig/sdcc/src/pic14/gen.c:1386:mov2w
                      00409 ;;      1109 rIdx = r0x105B 
003B   08??           00410         MOVF    r0x1000,W
                      00411 ;; >>> /home/sdcc-builder/build/sdcc-build/orig/sdcc/src/pic14/gen.c:1393:movwf
                      00412 ;;      1109 rIdx = r0x105F 
003C   00??           00413         MOVWF   r0x1004
gpasm-1.4.0 #1106 (Oct  6 2014) obj\Debug\gpi   6-23-2020  11:52:00         PAGE  9


LOC    OBJECT CODE    LINE  SOURCE TEXT
  VALUE

                      00414 ;; ***  addSign  861
                      00415 ;;; /home/sdcc-builder/build/sdcc-build/orig/sdcc/src/pic14/genarith.c:862:addSign *{*
                      00416 ;; ***  mov2w  1381  offset=0
                      00417 ;; >>> /home/sdcc-builder/build/sdcc-build/orig/sdcc/src/pic14/gen.c:1386:mov2w
                      00418 ;;      1109 rIdx = r0x105C 
003D   08??           00419         MOVF    r0x1001,W
                      00420 ;; >>> /home/sdcc-builder/build/sdcc-build/orig/sdcc/src/pic14/gen.c:5492:genGenericShift
003E   3C00           00421         SUBLW   0x00
                      00422 ;; >>> /home/sdcc-builder/build/sdcc-build/orig/sdcc/src/pic14/gen.c:5494:genGenericShift
003F   1903           00423         BTFSC   STATUS,2
                      00424 ;; >>> /home/sdcc-builder/build/sdcc-build/orig/sdcc/src/pic14/gen.c:5495:genGenericShift
                      00425 ;; ***  popGetLabel  key=17, label offset 105
0040   2???           00426         GOTO    _00222_DS_
                      00427 ;;; /home/sdcc-builder/build/sdcc-build/orig/sdcc/src/pic14/gen.c:5400:loadSignToC *{*
                      00428 ;; >>> /home/sdcc-builder/build/sdcc-build/orig/sdcc/src/pic14/gen.c:5403:loadSignToC
0041                  00429 _00221_DS_
0041   1003           00430         BCF     STATUS,0
                      00431 ;; >>> /home/sdcc-builder/build/sdcc-build/orig/sdcc/src/pic14/gen.c:5404:loadSignToC
0042   ???? ????      00432         BANKSEL r0x1005
0044   1B??           00433         BTFSC   r0x1005,7
                      00434 ;; >>> /home/sdcc-builder/build/sdcc-build/orig/sdcc/src/pic14/gen.c:5405:loadSignToC
0045   1403           00435         BSF     STATUS,0
                      00436 ;;; /home/sdcc-builder/build/sdcc-build/orig/sdcc/src/pic14/gen.c:5369:genMultiAsm *{*
                      00437 ;; ***  genMultiAsm  5370
                      00438 ;; >>> /home/sdcc-builder/build/sdcc-build/orig/sdcc/src/pic14/gen.c:5387:genMultiAsm
                      00439 ;;      1109 rIdx = r0x1060 
0046   0C??           00440         RRF     r0x1005,F
                      00441 ;; >>> /home/sdcc-builder/build/sdcc-build/orig/sdcc/src/pic14/gen.c:5387:genMultiAsm
                      00442 ;;      1109 rIdx = r0x105F 
0047   0C??           00443         RRF     r0x1004,F
                      00444 ;; >>> /home/sdcc-builder/build/sdcc-build/orig/sdcc/src/pic14/gen.c:5501:genGenericShift
0048   3E01           00445         ADDLW   0x01
                      00446 ;; >>> /home/sdcc-builder/build/sdcc-build/orig/sdcc/src/pic14/gen.c:5502:genGenericShift
0049   1C03           00447         BTFSS   STATUS,0
                      00448 ;; >>> /home/sdcc-builder/build/sdcc-build/orig/sdcc/src/pic14/gen.c:5503:genGenericShift
                      00449 ;; ***  popGetLabel  key=16, label offset 105
004A   2???           00450         GOTO    _00221_DS_
                      00451 ;;; /home/sdcc-builder/build/sdcc-build/orig/sdcc/src/pic14/gen.c:2316:resultRemat *{*
                      00452 ;;; /home/sdcc-builder/build/sdcc-build/orig/sdcc/src/pic14/gen.c:7120:genCast *{*
                      00453 ;; ***  genCast  7121
                      00454 ;;      694 register type nRegs=2
                      00455 ;;      694 register type nRegs=1
                      00456 ;;      line = 7129 result AOP_REG=r0x105D, size=1, left -=-, size=0, right AOP_REG=r0x105F, size=2
                      00457 ;; ***  genCast  7253
                      00458 ;; >>> /home/sdcc-builder/build/sdcc-build/orig/sdcc/src/pic14/gen.c:7277:genCast
                      00459 ;;      1109 rIdx = r0x105F 
004B                  00460 _00222_DS_
004B   ???? ????      00461         BANKSEL r0x1004
004D   08??           00462         MOVF    r0x1004,W
                      00463 ;; >>> /home/sdcc-builder/build/sdcc-build/orig/sdcc/src/pic14/gen.c:7278:genCast
                      00464 ;;      1109 rIdx = r0x105D 
004E   00??           00465         MOVWF   r0x1002
                      00466 ;;; /home/sdcc-builder/build/sdcc-build/orig/sdcc/src/pic14/gen.c:2316:resultRemat *{*
gpasm-1.4.0 #1106 (Oct  6 2014) obj\Debug\gpi   6-23-2020  11:52:00         PAGE 10


LOC    OBJECT CODE    LINE  SOURCE TEXT
  VALUE

                      00467 ;;; /home/sdcc-builder/build/sdcc-build/orig/sdcc/src/pic14/gen.c:2778:genGoto *{*
                      00468 ;; >>> /home/sdcc-builder/build/sdcc-build/orig/sdcc/src/pic14/gen.c:2780:genGoto
                      00469 ;; ***  popGetLabel  key=6, label offset 105
                      00470         .line   86; "gpio.c"    break;
004F   2???           00471         GOTO    _00211_DS_
                      00472 ;;; /home/sdcc-builder/build/sdcc-build/orig/sdcc/src/pic14/gen.c:2316:resultRemat *{*
                      00473 ;;; /home/sdcc-builder/build/sdcc-build/orig/sdcc/src/pic14/gen.c:2760:genLabel *{*
                      00474 ;; ***  genLabel  2763
                      00475 ;;; /home/sdcc-builder/build/sdcc-build/orig/sdcc/src/pic14/gen.c:2316:resultRemat *{*
                      00476 ;;; /home/sdcc-builder/build/sdcc-build/orig/sdcc/src/pic14/gen.c:5418:genGenericShift *{*
                      00477 ;; ***  genGenericShift  5421
                      00478 ;;      694 register type nRegs=1
                      00479 ;;      694 register type nRegs=2
                      00480 ;; ***  mov2w  1381  offset=1
                      00481 ;; >>> /home/sdcc-builder/build/sdcc-build/orig/sdcc/src/pic14/gen.c:1384:mov2w
0050                  00482 _00207_DS_
                      00483         .line   88; "gpio.c"    ret =  READ_REGISTER_PIN(PORTB, pin);
0050   3000           00484         MOVLW   0x00
                      00485 ;; >>> /home/sdcc-builder/build/sdcc-build/orig/sdcc/src/pic14/gen.c:1393:movwf
                      00486 ;;      1109 rIdx = r0x105E 
0051   ???? ????      00487         BANKSEL r0x1003
0053   00??           00488         MOVWF   r0x1003
                      00489 ;; ***  mov2w  1381  offset=0
                      00490 ;; >>> /home/sdcc-builder/build/sdcc-build/orig/sdcc/src/pic14/gen.c:1384:mov2w
0054   3001           00491         MOVLW   0x01
                      00492 ;; >>> /home/sdcc-builder/build/sdcc-build/orig/sdcc/src/pic14/gen.c:1393:movwf
                      00493 ;;      1109 rIdx = r0x105B 
0055   00??           00494         MOVWF   r0x1000
                      00495 ;; ***  addSign  861
                      00496 ;;; /home/sdcc-builder/build/sdcc-build/orig/sdcc/src/pic14/genarith.c:862:addSign *{*
                      00497 ;; ***  mov2w  1381  offset=0
                      00498 ;; >>> /home/sdcc-builder/build/sdcc-build/orig/sdcc/src/pic14/gen.c:1386:mov2w
                      00499 ;;      1109 rIdx = r0x105C 
0056   08??           00500         MOVF    r0x1001,W
                      00501 ;; >>> /home/sdcc-builder/build/sdcc-build/orig/sdcc/src/pic14/gen.c:5492:genGenericShift
0057   3C00           00502         SUBLW   0x00
                      00503 ;; >>> /home/sdcc-builder/build/sdcc-build/orig/sdcc/src/pic14/gen.c:5494:genGenericShift
0058   1903           00504         BTFSC   STATUS,2
                      00505 ;; >>> /home/sdcc-builder/build/sdcc-build/orig/sdcc/src/pic14/gen.c:5495:genGenericShift
                      00506 ;; ***  popGetLabel  key=19, label offset 105
0059   2???           00507         GOTO    _00224_DS_
                      00508 ;;; /home/sdcc-builder/build/sdcc-build/orig/sdcc/src/pic14/gen.c:5369:genMultiAsm *{*
                      00509 ;; ***  genMultiAsm  5370
                      00510 ;; >>> /home/sdcc-builder/build/sdcc-build/orig/sdcc/src/pic14/gen.c:5387:genMultiAsm
                      00511 ;;      1109 rIdx = r0x105B 
005A                  00512 _00223_DS_
005A   ???? ????      00513         BANKSEL r0x1000
005C   0D??           00514         RLF     r0x1000,F
                      00515 ;; >>> /home/sdcc-builder/build/sdcc-build/orig/sdcc/src/pic14/gen.c:5387:genMultiAsm
                      00516 ;;      1109 rIdx = r0x105E 
005D   0D??           00517         RLF     r0x1003,F
                      00518 ;; >>> /home/sdcc-builder/build/sdcc-build/orig/sdcc/src/pic14/gen.c:5501:genGenericShift
005E   3E01           00519         ADDLW   0x01
gpasm-1.4.0 #1106 (Oct  6 2014) obj\Debug\gpi   6-23-2020  11:52:00         PAGE 11


LOC    OBJECT CODE    LINE  SOURCE TEXT
  VALUE

                      00520 ;; >>> /home/sdcc-builder/build/sdcc-build/orig/sdcc/src/pic14/gen.c:5502:genGenericShift
005F   1C03           00521         BTFSS   STATUS,0
                      00522 ;; >>> /home/sdcc-builder/build/sdcc-build/orig/sdcc/src/pic14/gen.c:5503:genGenericShift
                      00523 ;; ***  popGetLabel  key=18, label offset 105
0060   2???           00524         GOTO    _00223_DS_
                      00525 ;;; /home/sdcc-builder/build/sdcc-build/orig/sdcc/src/pic14/gen.c:2316:resultRemat *{*
                      00526 ;;; /home/sdcc-builder/build/sdcc-build/orig/sdcc/src/pic14/gen.c:7120:genCast *{*
                      00527 ;; ***  genCast  7121
                      00528 ;; ***  aopForSym 315
                      00529 ;;      327 sym->rname = _PORTB, size = 1
                      00530 ;;      694 register type nRegs=2
                      00531 ;;      line = 7129 result AOP_REG=r0x105F, size=2, left -=-, size=0, right AOP_DIR=_PORTB, size=1
                      00532 ;; >>> /home/sdcc-builder/build/sdcc-build/orig/sdcc/src/pic14/gen.c:7298:genCast
                      00533 ;;      1009
                      00534 ;;      1028  _PORTB   offset=0
0061                  00535 _00224_DS_
0061   ???? ????      00536         BANKSEL _PORTB
0063   08??           00537         MOVF    _PORTB,W
                      00538 ;; >>> /home/sdcc-builder/build/sdcc-build/orig/sdcc/src/pic14/gen.c:7299:genCast
                      00539 ;;      1109 rIdx = r0x105F 
0064   ???? ????      00540         BANKSEL r0x1004
0066   00??           00541         MOVWF   r0x1004
                      00542 ;; ***  addSign  861
                      00543 ;;; /home/sdcc-builder/build/sdcc-build/orig/sdcc/src/pic14/genarith.c:862:addSign *{*
                      00544 ;; >>> /home/sdcc-builder/build/sdcc-build/orig/sdcc/src/pic14/genarith.c:881:addSign
                      00545 ;;      1109 rIdx = r0x1060 
0067   01??           00546         CLRF    r0x1005
                      00547 ;;; /home/sdcc-builder/build/sdcc-build/orig/sdcc/src/pic14/gen.c:2316:resultRemat *{*
                      00548 ;;; /home/sdcc-builder/build/sdcc-build/orig/sdcc/src/pic14/gen.c:3919:genAnd *{*
                      00549 ;; ***  genAnd  3920
                      00550 ;;      694 register type nRegs=2
                      00551 ;;      694 register type nRegs=2
                      00552 ;;      694 register type nRegs=2
                      00553 ;;      line = 3955 result AOP_REG=r0x105B, size=2, left AOP_REG=r0x105B, size=2, right AOP_REG=r0x105F,
                             size=2
                      00554 ;; >>> /home/sdcc-builder/build/sdcc-build/orig/sdcc/src/pic14/gen.c:4137:genAnd
                      00555 ;;      1109 rIdx = r0x105F 
0068   08??           00556         MOVF    r0x1004,W
                      00557 ;; >>> /home/sdcc-builder/build/sdcc-build/orig/sdcc/src/pic14/gen.c:4138:genAnd
                      00558 ;;      1109 rIdx = r0x105B 
0069   05??           00559         ANDWF   r0x1000,F
                      00560 ;; >>> /home/sdcc-builder/build/sdcc-build/orig/sdcc/src/pic14/gen.c:4137:genAnd
                      00561 ;;      1109 rIdx = r0x1060 
006A   3000           00562         MOVLW   0x00
                      00563 ;; >>> /home/sdcc-builder/build/sdcc-build/orig/sdcc/src/pic14/gen.c:4138:genAnd
                      00564 ;;      1109 rIdx = r0x105E 
006B   05??           00565         ANDWF   r0x1003,F
                      00566 ;;; /home/sdcc-builder/build/sdcc-build/orig/sdcc/src/pic14/gen.c:2316:resultRemat *{*
                      00567 ;;; /home/sdcc-builder/build/sdcc-build/orig/sdcc/src/pic14/gen.c:5418:genGenericShift *{*
                      00568 ;; ***  genGenericShift  5421
                      00569 ;;      694 register type nRegs=1
                      00570 ;;      694 register type nRegs=2
                      00571 ;;      694 register type nRegs=2
gpasm-1.4.0 #1106 (Oct  6 2014) obj\Debug\gpi   6-23-2020  11:52:00         PAGE 12


LOC    OBJECT CODE    LINE  SOURCE TEXT
  VALUE

                      00572 ;; ***  mov2w  1381  offset=1
                      00573 ;; >>> /home/sdcc-builder/build/sdcc-build/orig/sdcc/src/pic14/gen.c:1386:mov2w
                      00574 ;;      1109 rIdx = r0x105E 
006C   08??           00575         MOVF    r0x1003,W
                      00576 ;; >>> /home/sdcc-builder/build/sdcc-build/orig/sdcc/src/pic14/gen.c:1393:movwf
                      00577 ;;      1109 rIdx = r0x1060 
006D   00??           00578         MOVWF   r0x1005
                      00579 ;; ***  mov2w  1381  offset=0
                      00580 ;; >>> /home/sdcc-builder/build/sdcc-build/orig/sdcc/src/pic14/gen.c:1386:mov2w
                      00581 ;;      1109 rIdx = r0x105B 
006E   08??           00582         MOVF    r0x1000,W
                      00583 ;; >>> /home/sdcc-builder/build/sdcc-build/orig/sdcc/src/pic14/gen.c:1393:movwf
                      00584 ;;      1109 rIdx = r0x105F 
006F   00??           00585         MOVWF   r0x1004
                      00586 ;; ***  addSign  861
                      00587 ;;; /home/sdcc-builder/build/sdcc-build/orig/sdcc/src/pic14/genarith.c:862:addSign *{*
                      00588 ;; ***  mov2w  1381  offset=0
                      00589 ;; >>> /home/sdcc-builder/build/sdcc-build/orig/sdcc/src/pic14/gen.c:1386:mov2w
                      00590 ;;      1109 rIdx = r0x105C 
0070   08??           00591         MOVF    r0x1001,W
                      00592 ;; >>> /home/sdcc-builder/build/sdcc-build/orig/sdcc/src/pic14/gen.c:5492:genGenericShift
0071   3C00           00593         SUBLW   0x00
                      00594 ;; >>> /home/sdcc-builder/build/sdcc-build/orig/sdcc/src/pic14/gen.c:5494:genGenericShift
0072   1903           00595         BTFSC   STATUS,2
                      00596 ;; >>> /home/sdcc-builder/build/sdcc-build/orig/sdcc/src/pic14/gen.c:5495:genGenericShift
                      00597 ;; ***  popGetLabel  key=21, label offset 105
0073   2???           00598         GOTO    _00226_DS_
                      00599 ;;; /home/sdcc-builder/build/sdcc-build/orig/sdcc/src/pic14/gen.c:5400:loadSignToC *{*
                      00600 ;; >>> /home/sdcc-builder/build/sdcc-build/orig/sdcc/src/pic14/gen.c:5403:loadSignToC
0074                  00601 _00225_DS_
0074   1003           00602         BCF     STATUS,0
                      00603 ;; >>> /home/sdcc-builder/build/sdcc-build/orig/sdcc/src/pic14/gen.c:5404:loadSignToC
0075   ???? ????      00604         BANKSEL r0x1005
0077   1B??           00605         BTFSC   r0x1005,7
                      00606 ;; >>> /home/sdcc-builder/build/sdcc-build/orig/sdcc/src/pic14/gen.c:5405:loadSignToC
0078   1403           00607         BSF     STATUS,0
                      00608 ;;; /home/sdcc-builder/build/sdcc-build/orig/sdcc/src/pic14/gen.c:5369:genMultiAsm *{*
                      00609 ;; ***  genMultiAsm  5370
                      00610 ;; >>> /home/sdcc-builder/build/sdcc-build/orig/sdcc/src/pic14/gen.c:5387:genMultiAsm
                      00611 ;;      1109 rIdx = r0x1060 
0079   0C??           00612         RRF     r0x1005,F
                      00613 ;; >>> /home/sdcc-builder/build/sdcc-build/orig/sdcc/src/pic14/gen.c:5387:genMultiAsm
                      00614 ;;      1109 rIdx = r0x105F 
007A   0C??           00615         RRF     r0x1004,F
                      00616 ;; >>> /home/sdcc-builder/build/sdcc-build/orig/sdcc/src/pic14/gen.c:5501:genGenericShift
007B   3E01           00617         ADDLW   0x01
                      00618 ;; >>> /home/sdcc-builder/build/sdcc-build/orig/sdcc/src/pic14/gen.c:5502:genGenericShift
007C   1C03           00619         BTFSS   STATUS,0
                      00620 ;; >>> /home/sdcc-builder/build/sdcc-build/orig/sdcc/src/pic14/gen.c:5503:genGenericShift
                      00621 ;; ***  popGetLabel  key=20, label offset 105
007D   2???           00622         GOTO    _00225_DS_
                      00623 ;;; /home/sdcc-builder/build/sdcc-build/orig/sdcc/src/pic14/gen.c:2316:resultRemat *{*
                      00624 ;;; /home/sdcc-builder/build/sdcc-build/orig/sdcc/src/pic14/gen.c:7120:genCast *{*
gpasm-1.4.0 #1106 (Oct  6 2014) obj\Debug\gpi   6-23-2020  11:52:00         PAGE 13


LOC    OBJECT CODE    LINE  SOURCE TEXT
  VALUE

                      00625 ;; ***  genCast  7121
                      00626 ;;      694 register type nRegs=2
                      00627 ;;      694 register type nRegs=1
                      00628 ;;      line = 7129 result AOP_REG=r0x105D, size=1, left -=-, size=0, right AOP_REG=r0x105F, size=2
                      00629 ;; ***  genCast  7253
                      00630 ;; >>> /home/sdcc-builder/build/sdcc-build/orig/sdcc/src/pic14/gen.c:7277:genCast
                      00631 ;;      1109 rIdx = r0x105F 
007E                  00632 _00226_DS_
007E   ???? ????      00633         BANKSEL r0x1004
0080   08??           00634         MOVF    r0x1004,W
                      00635 ;; >>> /home/sdcc-builder/build/sdcc-build/orig/sdcc/src/pic14/gen.c:7278:genCast
                      00636 ;;      1109 rIdx = r0x105D 
0081   00??           00637         MOVWF   r0x1002
                      00638 ;;; /home/sdcc-builder/build/sdcc-build/orig/sdcc/src/pic14/gen.c:2316:resultRemat *{*
                      00639 ;;; /home/sdcc-builder/build/sdcc-build/orig/sdcc/src/pic14/gen.c:2778:genGoto *{*
                      00640 ;; >>> /home/sdcc-builder/build/sdcc-build/orig/sdcc/src/pic14/gen.c:2780:genGoto
                      00641 ;; ***  popGetLabel  key=6, label offset 105
                      00642         .line   89; "gpio.c"    break;
0082   2???           00643         GOTO    _00211_DS_
                      00644 ;;; /home/sdcc-builder/build/sdcc-build/orig/sdcc/src/pic14/gen.c:2316:resultRemat *{*
                      00645 ;;; /home/sdcc-builder/build/sdcc-build/orig/sdcc/src/pic14/gen.c:2760:genLabel *{*
                      00646 ;; ***  genLabel  2763
                      00647 ;;; /home/sdcc-builder/build/sdcc-build/orig/sdcc/src/pic14/gen.c:2316:resultRemat *{*
                      00648 ;;; /home/sdcc-builder/build/sdcc-build/orig/sdcc/src/pic14/gen.c:5418:genGenericShift *{*
                      00649 ;; ***  genGenericShift  5421
                      00650 ;;      694 register type nRegs=1
                      00651 ;;      694 register type nRegs=2
                      00652 ;; ***  mov2w  1381  offset=1
                      00653 ;; >>> /home/sdcc-builder/build/sdcc-build/orig/sdcc/src/pic14/gen.c:1384:mov2w
0083                  00654 _00208_DS_
                      00655         .line   91; "gpio.c"    ret =  READ_REGISTER_PIN(PORTC, pin);
0083   3000           00656         MOVLW   0x00
                      00657 ;; >>> /home/sdcc-builder/build/sdcc-build/orig/sdcc/src/pic14/gen.c:1393:movwf
                      00658 ;;      1109 rIdx = r0x105E 
0084   ???? ????      00659         BANKSEL r0x1003
0086   00??           00660         MOVWF   r0x1003
                      00661 ;; ***  mov2w  1381  offset=0
                      00662 ;; >>> /home/sdcc-builder/build/sdcc-build/orig/sdcc/src/pic14/gen.c:1384:mov2w
0087   3001           00663         MOVLW   0x01
                      00664 ;; >>> /home/sdcc-builder/build/sdcc-build/orig/sdcc/src/pic14/gen.c:1393:movwf
                      00665 ;;      1109 rIdx = r0x105B 
0088   00??           00666         MOVWF   r0x1000
                      00667 ;; ***  addSign  861
                      00668 ;;; /home/sdcc-builder/build/sdcc-build/orig/sdcc/src/pic14/genarith.c:862:addSign *{*
                      00669 ;; ***  mov2w  1381  offset=0
                      00670 ;; >>> /home/sdcc-builder/build/sdcc-build/orig/sdcc/src/pic14/gen.c:1386:mov2w
                      00671 ;;      1109 rIdx = r0x105C 
0089   08??           00672         MOVF    r0x1001,W
                      00673 ;; >>> /home/sdcc-builder/build/sdcc-build/orig/sdcc/src/pic14/gen.c:5492:genGenericShift
008A   3C00           00674         SUBLW   0x00
                      00675 ;; >>> /home/sdcc-builder/build/sdcc-build/orig/sdcc/src/pic14/gen.c:5494:genGenericShift
008B   1903           00676         BTFSC   STATUS,2
                      00677 ;; >>> /home/sdcc-builder/build/sdcc-build/orig/sdcc/src/pic14/gen.c:5495:genGenericShift
gpasm-1.4.0 #1106 (Oct  6 2014) obj\Debug\gpi   6-23-2020  11:52:00         PAGE 14


LOC    OBJECT CODE    LINE  SOURCE TEXT
  VALUE

                      00678 ;; ***  popGetLabel  key=23, label offset 105
008C   2???           00679         GOTO    _00228_DS_
                      00680 ;;; /home/sdcc-builder/build/sdcc-build/orig/sdcc/src/pic14/gen.c:5369:genMultiAsm *{*
                      00681 ;; ***  genMultiAsm  5370
                      00682 ;; >>> /home/sdcc-builder/build/sdcc-build/orig/sdcc/src/pic14/gen.c:5387:genMultiAsm
                      00683 ;;      1109 rIdx = r0x105B 
008D                  00684 _00227_DS_
008D   ???? ????      00685         BANKSEL r0x1000
008F   0D??           00686         RLF     r0x1000,F
                      00687 ;; >>> /home/sdcc-builder/build/sdcc-build/orig/sdcc/src/pic14/gen.c:5387:genMultiAsm
                      00688 ;;      1109 rIdx = r0x105E 
0090   0D??           00689         RLF     r0x1003,F
                      00690 ;; >>> /home/sdcc-builder/build/sdcc-build/orig/sdcc/src/pic14/gen.c:5501:genGenericShift
0091   3E01           00691         ADDLW   0x01
                      00692 ;; >>> /home/sdcc-builder/build/sdcc-build/orig/sdcc/src/pic14/gen.c:5502:genGenericShift
0092   1C03           00693         BTFSS   STATUS,0
                      00694 ;; >>> /home/sdcc-builder/build/sdcc-build/orig/sdcc/src/pic14/gen.c:5503:genGenericShift
                      00695 ;; ***  popGetLabel  key=22, label offset 105
0093   2???           00696         GOTO    _00227_DS_
                      00697 ;;; /home/sdcc-builder/build/sdcc-build/orig/sdcc/src/pic14/gen.c:2316:resultRemat *{*
                      00698 ;;; /home/sdcc-builder/build/sdcc-build/orig/sdcc/src/pic14/gen.c:7120:genCast *{*
                      00699 ;; ***  genCast  7121
                      00700 ;; ***  aopForSym 315
                      00701 ;;      327 sym->rname = _PORTC, size = 1
                      00702 ;;      694 register type nRegs=2
                      00703 ;;      line = 7129 result AOP_REG=r0x105F, size=2, left -=-, size=0, right AOP_DIR=_PORTC, size=1
                      00704 ;; >>> /home/sdcc-builder/build/sdcc-build/orig/sdcc/src/pic14/gen.c:7298:genCast
                      00705 ;;      1009
                      00706 ;;      1028  _PORTC   offset=0
0094                  00707 _00228_DS_
0094   ???? ????      00708         BANKSEL _PORTC
0096   08??           00709         MOVF    _PORTC,W
                      00710 ;; >>> /home/sdcc-builder/build/sdcc-build/orig/sdcc/src/pic14/gen.c:7299:genCast
                      00711 ;;      1109 rIdx = r0x105F 
0097   ???? ????      00712         BANKSEL r0x1004
0099   00??           00713         MOVWF   r0x1004
                      00714 ;; ***  addSign  861
                      00715 ;;; /home/sdcc-builder/build/sdcc-build/orig/sdcc/src/pic14/genarith.c:862:addSign *{*
                      00716 ;; >>> /home/sdcc-builder/build/sdcc-build/orig/sdcc/src/pic14/genarith.c:881:addSign
                      00717 ;;      1109 rIdx = r0x1060 
009A   01??           00718         CLRF    r0x1005
                      00719 ;;; /home/sdcc-builder/build/sdcc-build/orig/sdcc/src/pic14/gen.c:2316:resultRemat *{*
                      00720 ;;; /home/sdcc-builder/build/sdcc-build/orig/sdcc/src/pic14/gen.c:3919:genAnd *{*
                      00721 ;; ***  genAnd  3920
                      00722 ;;      694 register type nRegs=2
                      00723 ;;      694 register type nRegs=2
                      00724 ;;      694 register type nRegs=2
                      00725 ;;      line = 3955 result AOP_REG=r0x105B, size=2, left AOP_REG=r0x105B, size=2, right AOP_REG=r0x105F,
                             size=2
                      00726 ;; >>> /home/sdcc-builder/build/sdcc-build/orig/sdcc/src/pic14/gen.c:4137:genAnd
                      00727 ;;      1109 rIdx = r0x105F 
009B   08??           00728         MOVF    r0x1004,W
                      00729 ;; >>> /home/sdcc-builder/build/sdcc-build/orig/sdcc/src/pic14/gen.c:4138:genAnd
gpasm-1.4.0 #1106 (Oct  6 2014) obj\Debug\gpi   6-23-2020  11:52:00         PAGE 15


LOC    OBJECT CODE    LINE  SOURCE TEXT
  VALUE

                      00730 ;;      1109 rIdx = r0x105B 
009C   05??           00731         ANDWF   r0x1000,F
                      00732 ;; >>> /home/sdcc-builder/build/sdcc-build/orig/sdcc/src/pic14/gen.c:4137:genAnd
                      00733 ;;      1109 rIdx = r0x1060 
009D   3000           00734         MOVLW   0x00
                      00735 ;; >>> /home/sdcc-builder/build/sdcc-build/orig/sdcc/src/pic14/gen.c:4138:genAnd
                      00736 ;;      1109 rIdx = r0x105E 
009E   05??           00737         ANDWF   r0x1003,F
                      00738 ;;; /home/sdcc-builder/build/sdcc-build/orig/sdcc/src/pic14/gen.c:2316:resultRemat *{*
                      00739 ;;; /home/sdcc-builder/build/sdcc-build/orig/sdcc/src/pic14/gen.c:5418:genGenericShift *{*
                      00740 ;; ***  genGenericShift  5421
                      00741 ;;      694 register type nRegs=1
                      00742 ;;      694 register type nRegs=2
                      00743 ;;      694 register type nRegs=2
                      00744 ;; ***  mov2w  1381  offset=1
                      00745 ;; >>> /home/sdcc-builder/build/sdcc-build/orig/sdcc/src/pic14/gen.c:1386:mov2w
                      00746 ;;      1109 rIdx = r0x105E 
009F   08??           00747         MOVF    r0x1003,W
                      00748 ;; >>> /home/sdcc-builder/build/sdcc-build/orig/sdcc/src/pic14/gen.c:1393:movwf
                      00749 ;;      1109 rIdx = r0x1060 
00A0   00??           00750         MOVWF   r0x1005
                      00751 ;; ***  mov2w  1381  offset=0
                      00752 ;; >>> /home/sdcc-builder/build/sdcc-build/orig/sdcc/src/pic14/gen.c:1386:mov2w
                      00753 ;;      1109 rIdx = r0x105B 
00A1   08??           00754         MOVF    r0x1000,W
                      00755 ;; >>> /home/sdcc-builder/build/sdcc-build/orig/sdcc/src/pic14/gen.c:1393:movwf
                      00756 ;;      1109 rIdx = r0x105F 
00A2   00??           00757         MOVWF   r0x1004
                      00758 ;; ***  addSign  861
                      00759 ;;; /home/sdcc-builder/build/sdcc-build/orig/sdcc/src/pic14/genarith.c:862:addSign *{*
                      00760 ;; ***  mov2w  1381  offset=0
                      00761 ;; >>> /home/sdcc-builder/build/sdcc-build/orig/sdcc/src/pic14/gen.c:1386:mov2w
                      00762 ;;      1109 rIdx = r0x105C 
00A3   08??           00763         MOVF    r0x1001,W
                      00764 ;; >>> /home/sdcc-builder/build/sdcc-build/orig/sdcc/src/pic14/gen.c:5492:genGenericShift
00A4   3C00           00765         SUBLW   0x00
                      00766 ;; >>> /home/sdcc-builder/build/sdcc-build/orig/sdcc/src/pic14/gen.c:5494:genGenericShift
00A5   1903           00767         BTFSC   STATUS,2
                      00768 ;; >>> /home/sdcc-builder/build/sdcc-build/orig/sdcc/src/pic14/gen.c:5495:genGenericShift
                      00769 ;; ***  popGetLabel  key=25, label offset 105
00A6   2???           00770         GOTO    _00230_DS_
                      00771 ;;; /home/sdcc-builder/build/sdcc-build/orig/sdcc/src/pic14/gen.c:5400:loadSignToC *{*
                      00772 ;; >>> /home/sdcc-builder/build/sdcc-build/orig/sdcc/src/pic14/gen.c:5403:loadSignToC
00A7                  00773 _00229_DS_
00A7   1003           00774         BCF     STATUS,0
                      00775 ;; >>> /home/sdcc-builder/build/sdcc-build/orig/sdcc/src/pic14/gen.c:5404:loadSignToC
00A8   ???? ????      00776         BANKSEL r0x1005
00AA   1B??           00777         BTFSC   r0x1005,7
                      00778 ;; >>> /home/sdcc-builder/build/sdcc-build/orig/sdcc/src/pic14/gen.c:5405:loadSignToC
00AB   1403           00779         BSF     STATUS,0
                      00780 ;;; /home/sdcc-builder/build/sdcc-build/orig/sdcc/src/pic14/gen.c:5369:genMultiAsm *{*
                      00781 ;; ***  genMultiAsm  5370
                      00782 ;; >>> /home/sdcc-builder/build/sdcc-build/orig/sdcc/src/pic14/gen.c:5387:genMultiAsm
gpasm-1.4.0 #1106 (Oct  6 2014) obj\Debug\gpi   6-23-2020  11:52:00         PAGE 16


LOC    OBJECT CODE    LINE  SOURCE TEXT
  VALUE

                      00783 ;;      1109 rIdx = r0x1060 
00AC   0C??           00784         RRF     r0x1005,F
                      00785 ;; >>> /home/sdcc-builder/build/sdcc-build/orig/sdcc/src/pic14/gen.c:5387:genMultiAsm
                      00786 ;;      1109 rIdx = r0x105F 
00AD   0C??           00787         RRF     r0x1004,F
                      00788 ;; >>> /home/sdcc-builder/build/sdcc-build/orig/sdcc/src/pic14/gen.c:5501:genGenericShift
00AE   3E01           00789         ADDLW   0x01
                      00790 ;; >>> /home/sdcc-builder/build/sdcc-build/orig/sdcc/src/pic14/gen.c:5502:genGenericShift
00AF   1C03           00791         BTFSS   STATUS,0
                      00792 ;; >>> /home/sdcc-builder/build/sdcc-build/orig/sdcc/src/pic14/gen.c:5503:genGenericShift
                      00793 ;; ***  popGetLabel  key=24, label offset 105
00B0   2???           00794         GOTO    _00229_DS_
                      00795 ;;; /home/sdcc-builder/build/sdcc-build/orig/sdcc/src/pic14/gen.c:2316:resultRemat *{*
                      00796 ;;; /home/sdcc-builder/build/sdcc-build/orig/sdcc/src/pic14/gen.c:7120:genCast *{*
                      00797 ;; ***  genCast  7121
                      00798 ;;      694 register type nRegs=2
                      00799 ;;      694 register type nRegs=1
                      00800 ;;      line = 7129 result AOP_REG=r0x105D, size=1, left -=-, size=0, right AOP_REG=r0x105F, size=2
                      00801 ;; ***  genCast  7253
                      00802 ;; >>> /home/sdcc-builder/build/sdcc-build/orig/sdcc/src/pic14/gen.c:7277:genCast
                      00803 ;;      1109 rIdx = r0x105F 
00B1                  00804 _00230_DS_
00B1   ???? ????      00805         BANKSEL r0x1004
00B3   08??           00806         MOVF    r0x1004,W
                      00807 ;; >>> /home/sdcc-builder/build/sdcc-build/orig/sdcc/src/pic14/gen.c:7278:genCast
                      00808 ;;      1109 rIdx = r0x105D 
00B4   00??           00809         MOVWF   r0x1002
                      00810 ;;; /home/sdcc-builder/build/sdcc-build/orig/sdcc/src/pic14/gen.c:2316:resultRemat *{*
                      00811 ;;; /home/sdcc-builder/build/sdcc-build/orig/sdcc/src/pic14/gen.c:2778:genGoto *{*
                      00812 ;; >>> /home/sdcc-builder/build/sdcc-build/orig/sdcc/src/pic14/gen.c:2780:genGoto
                      00813 ;; ***  popGetLabel  key=6, label offset 105
                      00814         .line   92; "gpio.c"    break;
00B5   2???           00815         GOTO    _00211_DS_
                      00816 ;;; /home/sdcc-builder/build/sdcc-build/orig/sdcc/src/pic14/gen.c:2316:resultRemat *{*
                      00817 ;;; /home/sdcc-builder/build/sdcc-build/orig/sdcc/src/pic14/gen.c:2760:genLabel *{*
                      00818 ;; ***  genLabel  2763
                      00819 ;;; /home/sdcc-builder/build/sdcc-build/orig/sdcc/src/pic14/gen.c:2316:resultRemat *{*
                      00820 ;;; /home/sdcc-builder/build/sdcc-build/orig/sdcc/src/pic14/gen.c:5418:genGenericShift *{*
                      00821 ;; ***  genGenericShift  5421
                      00822 ;;      694 register type nRegs=1
                      00823 ;;      694 register type nRegs=2
                      00824 ;; ***  mov2w  1381  offset=1
                      00825 ;; >>> /home/sdcc-builder/build/sdcc-build/orig/sdcc/src/pic14/gen.c:1384:mov2w
00B6                  00826 _00209_DS_
                      00827         .line   94; "gpio.c"    ret =  READ_REGISTER_PIN(PORTD, pin);
00B6   3000           00828         MOVLW   0x00
                      00829 ;; >>> /home/sdcc-builder/build/sdcc-build/orig/sdcc/src/pic14/gen.c:1393:movwf
                      00830 ;;      1109 rIdx = r0x105E 
00B7   ???? ????      00831         BANKSEL r0x1003
00B9   00??           00832         MOVWF   r0x1003
                      00833 ;; ***  mov2w  1381  offset=0
                      00834 ;; >>> /home/sdcc-builder/build/sdcc-build/orig/sdcc/src/pic14/gen.c:1384:mov2w
00BA   3001           00835         MOVLW   0x01
gpasm-1.4.0 #1106 (Oct  6 2014) obj\Debug\gpi   6-23-2020  11:52:00         PAGE 17


LOC    OBJECT CODE    LINE  SOURCE TEXT
  VALUE

                      00836 ;; >>> /home/sdcc-builder/build/sdcc-build/orig/sdcc/src/pic14/gen.c:1393:movwf
                      00837 ;;      1109 rIdx = r0x105B 
00BB   00??           00838         MOVWF   r0x1000
                      00839 ;; ***  addSign  861
                      00840 ;;; /home/sdcc-builder/build/sdcc-build/orig/sdcc/src/pic14/genarith.c:862:addSign *{*
                      00841 ;; ***  mov2w  1381  offset=0
                      00842 ;; >>> /home/sdcc-builder/build/sdcc-build/orig/sdcc/src/pic14/gen.c:1386:mov2w
                      00843 ;;      1109 rIdx = r0x105C 
00BC   08??           00844         MOVF    r0x1001,W
                      00845 ;; >>> /home/sdcc-builder/build/sdcc-build/orig/sdcc/src/pic14/gen.c:5492:genGenericShift
00BD   3C00           00846         SUBLW   0x00
                      00847 ;; >>> /home/sdcc-builder/build/sdcc-build/orig/sdcc/src/pic14/gen.c:5494:genGenericShift
00BE   1903           00848         BTFSC   STATUS,2
                      00849 ;; >>> /home/sdcc-builder/build/sdcc-build/orig/sdcc/src/pic14/gen.c:5495:genGenericShift
                      00850 ;; ***  popGetLabel  key=27, label offset 105
00BF   2???           00851         GOTO    _00232_DS_
                      00852 ;;; /home/sdcc-builder/build/sdcc-build/orig/sdcc/src/pic14/gen.c:5369:genMultiAsm *{*
                      00853 ;; ***  genMultiAsm  5370
                      00854 ;; >>> /home/sdcc-builder/build/sdcc-build/orig/sdcc/src/pic14/gen.c:5387:genMultiAsm
                      00855 ;;      1109 rIdx = r0x105B 
00C0                  00856 _00231_DS_
00C0   ???? ????      00857         BANKSEL r0x1000
00C2   0D??           00858         RLF     r0x1000,F
                      00859 ;; >>> /home/sdcc-builder/build/sdcc-build/orig/sdcc/src/pic14/gen.c:5387:genMultiAsm
                      00860 ;;      1109 rIdx = r0x105E 
00C3   0D??           00861         RLF     r0x1003,F
                      00862 ;; >>> /home/sdcc-builder/build/sdcc-build/orig/sdcc/src/pic14/gen.c:5501:genGenericShift
00C4   3E01           00863         ADDLW   0x01
                      00864 ;; >>> /home/sdcc-builder/build/sdcc-build/orig/sdcc/src/pic14/gen.c:5502:genGenericShift
00C5   1C03           00865         BTFSS   STATUS,0
                      00866 ;; >>> /home/sdcc-builder/build/sdcc-build/orig/sdcc/src/pic14/gen.c:5503:genGenericShift
                      00867 ;; ***  popGetLabel  key=26, label offset 105
00C6   2???           00868         GOTO    _00231_DS_
                      00869 ;;; /home/sdcc-builder/build/sdcc-build/orig/sdcc/src/pic14/gen.c:2316:resultRemat *{*
                      00870 ;;; /home/sdcc-builder/build/sdcc-build/orig/sdcc/src/pic14/gen.c:7120:genCast *{*
                      00871 ;; ***  genCast  7121
                      00872 ;; ***  aopForSym 315
                      00873 ;;      327 sym->rname = _PORTD, size = 1
                      00874 ;;      694 register type nRegs=2
                      00875 ;;      line = 7129 result AOP_REG=r0x105F, size=2, left -=-, size=0, right AOP_DIR=_PORTD, size=1
                      00876 ;; >>> /home/sdcc-builder/build/sdcc-build/orig/sdcc/src/pic14/gen.c:7298:genCast
                      00877 ;;      1009
                      00878 ;;      1028  _PORTD   offset=0
00C7                  00879 _00232_DS_
00C7   ???? ????      00880         BANKSEL _PORTD
00C9   08??           00881         MOVF    _PORTD,W
                      00882 ;; >>> /home/sdcc-builder/build/sdcc-build/orig/sdcc/src/pic14/gen.c:7299:genCast
                      00883 ;;      1109 rIdx = r0x105F 
00CA   ???? ????      00884         BANKSEL r0x1004
00CC   00??           00885         MOVWF   r0x1004
                      00886 ;; ***  addSign  861
                      00887 ;;; /home/sdcc-builder/build/sdcc-build/orig/sdcc/src/pic14/genarith.c:862:addSign *{*
                      00888 ;; >>> /home/sdcc-builder/build/sdcc-build/orig/sdcc/src/pic14/genarith.c:881:addSign
gpasm-1.4.0 #1106 (Oct  6 2014) obj\Debug\gpi   6-23-2020  11:52:00         PAGE 18


LOC    OBJECT CODE    LINE  SOURCE TEXT
  VALUE

                      00889 ;;      1109 rIdx = r0x1060 
00CD   01??           00890         CLRF    r0x1005
                      00891 ;;; /home/sdcc-builder/build/sdcc-build/orig/sdcc/src/pic14/gen.c:2316:resultRemat *{*
                      00892 ;;; /home/sdcc-builder/build/sdcc-build/orig/sdcc/src/pic14/gen.c:3919:genAnd *{*
                      00893 ;; ***  genAnd  3920
                      00894 ;;      694 register type nRegs=2
                      00895 ;;      694 register type nRegs=2
                      00896 ;;      694 register type nRegs=2
                      00897 ;;      line = 3955 result AOP_REG=r0x105B, size=2, left AOP_REG=r0x105B, size=2, right AOP_REG=r0x105F,
                             size=2
                      00898 ;; >>> /home/sdcc-builder/build/sdcc-build/orig/sdcc/src/pic14/gen.c:4137:genAnd
                      00899 ;;      1109 rIdx = r0x105F 
00CE   08??           00900         MOVF    r0x1004,W
                      00901 ;; >>> /home/sdcc-builder/build/sdcc-build/orig/sdcc/src/pic14/gen.c:4138:genAnd
                      00902 ;;      1109 rIdx = r0x105B 
00CF   05??           00903         ANDWF   r0x1000,F
                      00904 ;; >>> /home/sdcc-builder/build/sdcc-build/orig/sdcc/src/pic14/gen.c:4137:genAnd
                      00905 ;;      1109 rIdx = r0x1060 
00D0   3000           00906         MOVLW   0x00
                      00907 ;; >>> /home/sdcc-builder/build/sdcc-build/orig/sdcc/src/pic14/gen.c:4138:genAnd
                      00908 ;;      1109 rIdx = r0x105E 
00D1   05??           00909         ANDWF   r0x1003,F
                      00910 ;;; /home/sdcc-builder/build/sdcc-build/orig/sdcc/src/pic14/gen.c:2316:resultRemat *{*
                      00911 ;;; /home/sdcc-builder/build/sdcc-build/orig/sdcc/src/pic14/gen.c:5418:genGenericShift *{*
                      00912 ;; ***  genGenericShift  5421
                      00913 ;;      694 register type nRegs=1
                      00914 ;;      694 register type nRegs=2
                      00915 ;;      694 register type nRegs=2
                      00916 ;; ***  mov2w  1381  offset=1
                      00917 ;; >>> /home/sdcc-builder/build/sdcc-build/orig/sdcc/src/pic14/gen.c:1386:mov2w
                      00918 ;;      1109 rIdx = r0x105E 
00D2   08??           00919         MOVF    r0x1003,W
                      00920 ;; >>> /home/sdcc-builder/build/sdcc-build/orig/sdcc/src/pic14/gen.c:1393:movwf
                      00921 ;;      1109 rIdx = r0x1060 
00D3   00??           00922         MOVWF   r0x1005
                      00923 ;; ***  mov2w  1381  offset=0
                      00924 ;; >>> /home/sdcc-builder/build/sdcc-build/orig/sdcc/src/pic14/gen.c:1386:mov2w
                      00925 ;;      1109 rIdx = r0x105B 
00D4   08??           00926         MOVF    r0x1000,W
                      00927 ;; >>> /home/sdcc-builder/build/sdcc-build/orig/sdcc/src/pic14/gen.c:1393:movwf
                      00928 ;;      1109 rIdx = r0x105F 
00D5   00??           00929         MOVWF   r0x1004
                      00930 ;; ***  addSign  861
                      00931 ;;; /home/sdcc-builder/build/sdcc-build/orig/sdcc/src/pic14/genarith.c:862:addSign *{*
                      00932 ;; ***  mov2w  1381  offset=0
                      00933 ;; >>> /home/sdcc-builder/build/sdcc-build/orig/sdcc/src/pic14/gen.c:1386:mov2w
                      00934 ;;      1109 rIdx = r0x105C 
00D6   08??           00935         MOVF    r0x1001,W
                      00936 ;; >>> /home/sdcc-builder/build/sdcc-build/orig/sdcc/src/pic14/gen.c:5492:genGenericShift
00D7   3C00           00937         SUBLW   0x00
                      00938 ;; >>> /home/sdcc-builder/build/sdcc-build/orig/sdcc/src/pic14/gen.c:5494:genGenericShift
00D8   1903           00939         BTFSC   STATUS,2
                      00940 ;; >>> /home/sdcc-builder/build/sdcc-build/orig/sdcc/src/pic14/gen.c:5495:genGenericShift
gpasm-1.4.0 #1106 (Oct  6 2014) obj\Debug\gpi   6-23-2020  11:52:00         PAGE 19


LOC    OBJECT CODE    LINE  SOURCE TEXT
  VALUE

                      00941 ;; ***  popGetLabel  key=29, label offset 105
00D9   2???           00942         GOTO    _00234_DS_
                      00943 ;;; /home/sdcc-builder/build/sdcc-build/orig/sdcc/src/pic14/gen.c:5400:loadSignToC *{*
                      00944 ;; >>> /home/sdcc-builder/build/sdcc-build/orig/sdcc/src/pic14/gen.c:5403:loadSignToC
00DA                  00945 _00233_DS_
00DA   1003           00946         BCF     STATUS,0
                      00947 ;; >>> /home/sdcc-builder/build/sdcc-build/orig/sdcc/src/pic14/gen.c:5404:loadSignToC
00DB   ???? ????      00948         BANKSEL r0x1005
00DD   1B??           00949         BTFSC   r0x1005,7
                      00950 ;; >>> /home/sdcc-builder/build/sdcc-build/orig/sdcc/src/pic14/gen.c:5405:loadSignToC
00DE   1403           00951         BSF     STATUS,0
                      00952 ;;; /home/sdcc-builder/build/sdcc-build/orig/sdcc/src/pic14/gen.c:5369:genMultiAsm *{*
                      00953 ;; ***  genMultiAsm  5370
                      00954 ;; >>> /home/sdcc-builder/build/sdcc-build/orig/sdcc/src/pic14/gen.c:5387:genMultiAsm
                      00955 ;;      1109 rIdx = r0x1060 
00DF   0C??           00956         RRF     r0x1005,F
                      00957 ;; >>> /home/sdcc-builder/build/sdcc-build/orig/sdcc/src/pic14/gen.c:5387:genMultiAsm
                      00958 ;;      1109 rIdx = r0x105F 
00E0   0C??           00959         RRF     r0x1004,F
                      00960 ;; >>> /home/sdcc-builder/build/sdcc-build/orig/sdcc/src/pic14/gen.c:5501:genGenericShift
00E1   3E01           00961         ADDLW   0x01
                      00962 ;; >>> /home/sdcc-builder/build/sdcc-build/orig/sdcc/src/pic14/gen.c:5502:genGenericShift
00E2   1C03           00963         BTFSS   STATUS,0
                      00964 ;; >>> /home/sdcc-builder/build/sdcc-build/orig/sdcc/src/pic14/gen.c:5503:genGenericShift
                      00965 ;; ***  popGetLabel  key=28, label offset 105
00E3   2???           00966         GOTO    _00233_DS_
                      00967 ;;; /home/sdcc-builder/build/sdcc-build/orig/sdcc/src/pic14/gen.c:2316:resultRemat *{*
                      00968 ;;; /home/sdcc-builder/build/sdcc-build/orig/sdcc/src/pic14/gen.c:7120:genCast *{*
                      00969 ;; ***  genCast  7121
                      00970 ;;      694 register type nRegs=2
                      00971 ;;      694 register type nRegs=1
                      00972 ;;      line = 7129 result AOP_REG=r0x105D, size=1, left -=-, size=0, right AOP_REG=r0x105F, size=2
                      00973 ;; ***  genCast  7253
                      00974 ;; >>> /home/sdcc-builder/build/sdcc-build/orig/sdcc/src/pic14/gen.c:7277:genCast
                      00975 ;;      1109 rIdx = r0x105F 
00E4                  00976 _00234_DS_
00E4   ???? ????      00977         BANKSEL r0x1004
00E6   08??           00978         MOVF    r0x1004,W
                      00979 ;; >>> /home/sdcc-builder/build/sdcc-build/orig/sdcc/src/pic14/gen.c:7278:genCast
                      00980 ;;      1109 rIdx = r0x105D 
00E7   00??           00981         MOVWF   r0x1002
                      00982 ;;; /home/sdcc-builder/build/sdcc-build/orig/sdcc/src/pic14/gen.c:2316:resultRemat *{*
                      00983 ;;; /home/sdcc-builder/build/sdcc-build/orig/sdcc/src/pic14/gen.c:2778:genGoto *{*
                      00984 ;; >>> /home/sdcc-builder/build/sdcc-build/orig/sdcc/src/pic14/gen.c:2780:genGoto
                      00985 ;; ***  popGetLabel  key=6, label offset 105
                      00986         .line   95; "gpio.c"    break;
00E8   2???           00987         GOTO    _00211_DS_
                      00988 ;;; /home/sdcc-builder/build/sdcc-build/orig/sdcc/src/pic14/gen.c:2316:resultRemat *{*
                      00989 ;;; /home/sdcc-builder/build/sdcc-build/orig/sdcc/src/pic14/gen.c:2760:genLabel *{*
                      00990 ;; ***  genLabel  2763
                      00991 ;;; /home/sdcc-builder/build/sdcc-build/orig/sdcc/src/pic14/gen.c:2316:resultRemat *{*
                      00992 ;;; /home/sdcc-builder/build/sdcc-build/orig/sdcc/src/pic14/gen.c:5418:genGenericShift *{*
                      00993 ;; ***  genGenericShift  5421
gpasm-1.4.0 #1106 (Oct  6 2014) obj\Debug\gpi   6-23-2020  11:52:00         PAGE 20


LOC    OBJECT CODE    LINE  SOURCE TEXT
  VALUE

                      00994 ;;      694 register type nRegs=1
                      00995 ;;      694 register type nRegs=2
                      00996 ;; ***  mov2w  1381  offset=1
                      00997 ;; >>> /home/sdcc-builder/build/sdcc-build/orig/sdcc/src/pic14/gen.c:1384:mov2w
00E9                  00998 _00210_DS_
                      00999         .line   97; "gpio.c"    ret =  READ_REGISTER_PIN(PORTE, pin);
00E9   3000           01000         MOVLW   0x00
                      01001 ;; >>> /home/sdcc-builder/build/sdcc-build/orig/sdcc/src/pic14/gen.c:1393:movwf
                      01002 ;;      1109 rIdx = r0x105E 
00EA   ???? ????      01003         BANKSEL r0x1003
00EC   00??           01004         MOVWF   r0x1003
                      01005 ;; ***  mov2w  1381  offset=0
                      01006 ;; >>> /home/sdcc-builder/build/sdcc-build/orig/sdcc/src/pic14/gen.c:1384:mov2w
00ED   3001           01007         MOVLW   0x01
                      01008 ;; >>> /home/sdcc-builder/build/sdcc-build/orig/sdcc/src/pic14/gen.c:1393:movwf
                      01009 ;;      1109 rIdx = r0x105B 
00EE   00??           01010         MOVWF   r0x1000
                      01011 ;; ***  addSign  861
                      01012 ;;; /home/sdcc-builder/build/sdcc-build/orig/sdcc/src/pic14/genarith.c:862:addSign *{*
                      01013 ;; ***  mov2w  1381  offset=0
                      01014 ;; >>> /home/sdcc-builder/build/sdcc-build/orig/sdcc/src/pic14/gen.c:1386:mov2w
                      01015 ;;      1109 rIdx = r0x105C 
00EF   08??           01016         MOVF    r0x1001,W
                      01017 ;; >>> /home/sdcc-builder/build/sdcc-build/orig/sdcc/src/pic14/gen.c:5492:genGenericShift
00F0   3C00           01018         SUBLW   0x00
                      01019 ;; >>> /home/sdcc-builder/build/sdcc-build/orig/sdcc/src/pic14/gen.c:5494:genGenericShift
00F1   1903           01020         BTFSC   STATUS,2
                      01021 ;; >>> /home/sdcc-builder/build/sdcc-build/orig/sdcc/src/pic14/gen.c:5495:genGenericShift
                      01022 ;; ***  popGetLabel  key=31, label offset 105
00F2   2???           01023         GOTO    _00236_DS_
                      01024 ;;; /home/sdcc-builder/build/sdcc-build/orig/sdcc/src/pic14/gen.c:5369:genMultiAsm *{*
                      01025 ;; ***  genMultiAsm  5370
                      01026 ;; >>> /home/sdcc-builder/build/sdcc-build/orig/sdcc/src/pic14/gen.c:5387:genMultiAsm
                      01027 ;;      1109 rIdx = r0x105B 
00F3                  01028 _00235_DS_
00F3   ???? ????      01029         BANKSEL r0x1000
00F5   0D??           01030         RLF     r0x1000,F
                      01031 ;; >>> /home/sdcc-builder/build/sdcc-build/orig/sdcc/src/pic14/gen.c:5387:genMultiAsm
                      01032 ;;      1109 rIdx = r0x105E 
00F6   0D??           01033         RLF     r0x1003,F
                      01034 ;; >>> /home/sdcc-builder/build/sdcc-build/orig/sdcc/src/pic14/gen.c:5501:genGenericShift
00F7   3E01           01035         ADDLW   0x01
                      01036 ;; >>> /home/sdcc-builder/build/sdcc-build/orig/sdcc/src/pic14/gen.c:5502:genGenericShift
00F8   1C03           01037         BTFSS   STATUS,0
                      01038 ;; >>> /home/sdcc-builder/build/sdcc-build/orig/sdcc/src/pic14/gen.c:5503:genGenericShift
                      01039 ;; ***  popGetLabel  key=30, label offset 105
00F9   2???           01040         GOTO    _00235_DS_
                      01041 ;;; /home/sdcc-builder/build/sdcc-build/orig/sdcc/src/pic14/gen.c:2316:resultRemat *{*
                      01042 ;;; /home/sdcc-builder/build/sdcc-build/orig/sdcc/src/pic14/gen.c:7120:genCast *{*
                      01043 ;; ***  genCast  7121
                      01044 ;; ***  aopForSym 315
                      01045 ;;      327 sym->rname = _PORTE, size = 1
                      01046 ;;      694 register type nRegs=2
gpasm-1.4.0 #1106 (Oct  6 2014) obj\Debug\gpi   6-23-2020  11:52:00         PAGE 21


LOC    OBJECT CODE    LINE  SOURCE TEXT
  VALUE

                      01047 ;;      line = 7129 result AOP_REG=r0x105F, size=2, left -=-, size=0, right AOP_DIR=_PORTE, size=1
                      01048 ;; >>> /home/sdcc-builder/build/sdcc-build/orig/sdcc/src/pic14/gen.c:7298:genCast
                      01049 ;;      1009
                      01050 ;;      1028  _PORTE   offset=0
00FA                  01051 _00236_DS_
00FA   ???? ????      01052         BANKSEL _PORTE
00FC   08??           01053         MOVF    _PORTE,W
                      01054 ;; >>> /home/sdcc-builder/build/sdcc-build/orig/sdcc/src/pic14/gen.c:7299:genCast
                      01055 ;;      1109 rIdx = r0x105F 
00FD   ???? ????      01056         BANKSEL r0x1004
00FF   00??           01057         MOVWF   r0x1004
                      01058 ;; ***  addSign  861
                      01059 ;;; /home/sdcc-builder/build/sdcc-build/orig/sdcc/src/pic14/genarith.c:862:addSign *{*
                      01060 ;; >>> /home/sdcc-builder/build/sdcc-build/orig/sdcc/src/pic14/genarith.c:881:addSign
                      01061 ;;      1109 rIdx = r0x1060 
0100   01??           01062         CLRF    r0x1005
                      01063 ;;; /home/sdcc-builder/build/sdcc-build/orig/sdcc/src/pic14/gen.c:2316:resultRemat *{*
                      01064 ;;; /home/sdcc-builder/build/sdcc-build/orig/sdcc/src/pic14/gen.c:3919:genAnd *{*
                      01065 ;; ***  genAnd  3920
                      01066 ;;      694 register type nRegs=2
                      01067 ;;      694 register type nRegs=2
                      01068 ;;      694 register type nRegs=2
                      01069 ;;      line = 3955 result AOP_REG=r0x105B, size=2, left AOP_REG=r0x105B, size=2, right AOP_REG=r0x105F,
                             size=2
                      01070 ;; >>> /home/sdcc-builder/build/sdcc-build/orig/sdcc/src/pic14/gen.c:4137:genAnd
                      01071 ;;      1109 rIdx = r0x105F 
0101   08??           01072         MOVF    r0x1004,W
                      01073 ;; >>> /home/sdcc-builder/build/sdcc-build/orig/sdcc/src/pic14/gen.c:4138:genAnd
                      01074 ;;      1109 rIdx = r0x105B 
0102   05??           01075         ANDWF   r0x1000,F
                      01076 ;; >>> /home/sdcc-builder/build/sdcc-build/orig/sdcc/src/pic14/gen.c:4137:genAnd
                      01077 ;;      1109 rIdx = r0x1060 
0103   3000           01078         MOVLW   0x00
                      01079 ;; >>> /home/sdcc-builder/build/sdcc-build/orig/sdcc/src/pic14/gen.c:4138:genAnd
                      01080 ;;      1109 rIdx = r0x105E 
0104   05??           01081         ANDWF   r0x1003,F
                      01082 ;;; /home/sdcc-builder/build/sdcc-build/orig/sdcc/src/pic14/gen.c:2316:resultRemat *{*
                      01083 ;;; /home/sdcc-builder/build/sdcc-build/orig/sdcc/src/pic14/gen.c:5418:genGenericShift *{*
                      01084 ;; ***  genGenericShift  5421
                      01085 ;;      694 register type nRegs=1
                      01086 ;;      694 register type nRegs=2
                      01087 ;;      694 register type nRegs=2
                      01088 ;; ***  mov2w  1381  offset=1
                      01089 ;; >>> /home/sdcc-builder/build/sdcc-build/orig/sdcc/src/pic14/gen.c:1386:mov2w
                      01090 ;;      1109 rIdx = r0x105E 
0105   08??           01091         MOVF    r0x1003,W
                      01092 ;; >>> /home/sdcc-builder/build/sdcc-build/orig/sdcc/src/pic14/gen.c:1393:movwf
                      01093 ;;      1109 rIdx = r0x1060 
0106   00??           01094         MOVWF   r0x1005
                      01095 ;; ***  mov2w  1381  offset=0
                      01096 ;; >>> /home/sdcc-builder/build/sdcc-build/orig/sdcc/src/pic14/gen.c:1386:mov2w
                      01097 ;;      1109 rIdx = r0x105B 
0107   08??           01098         MOVF    r0x1000,W
gpasm-1.4.0 #1106 (Oct  6 2014) obj\Debug\gpi   6-23-2020  11:52:00         PAGE 22


LOC    OBJECT CODE    LINE  SOURCE TEXT
  VALUE

                      01099 ;; >>> /home/sdcc-builder/build/sdcc-build/orig/sdcc/src/pic14/gen.c:1393:movwf
                      01100 ;;      1109 rIdx = r0x105F 
0108   00??           01101         MOVWF   r0x1004
                      01102 ;; ***  addSign  861
                      01103 ;;; /home/sdcc-builder/build/sdcc-build/orig/sdcc/src/pic14/genarith.c:862:addSign *{*
                      01104 ;; ***  mov2w  1381  offset=0
                      01105 ;; >>> /home/sdcc-builder/build/sdcc-build/orig/sdcc/src/pic14/gen.c:1386:mov2w
                      01106 ;;      1109 rIdx = r0x105C 
0109   08??           01107         MOVF    r0x1001,W
                      01108 ;; >>> /home/sdcc-builder/build/sdcc-build/orig/sdcc/src/pic14/gen.c:5492:genGenericShift
010A   3C00           01109         SUBLW   0x00
                      01110 ;; >>> /home/sdcc-builder/build/sdcc-build/orig/sdcc/src/pic14/gen.c:5494:genGenericShift
010B   1903           01111         BTFSC   STATUS,2
                      01112 ;; >>> /home/sdcc-builder/build/sdcc-build/orig/sdcc/src/pic14/gen.c:5495:genGenericShift
                      01113 ;; ***  popGetLabel  key=33, label offset 105
010C   2???           01114         GOTO    _00238_DS_
                      01115 ;;; /home/sdcc-builder/build/sdcc-build/orig/sdcc/src/pic14/gen.c:5400:loadSignToC *{*
                      01116 ;; >>> /home/sdcc-builder/build/sdcc-build/orig/sdcc/src/pic14/gen.c:5403:loadSignToC
010D                  01117 _00237_DS_
010D   1003           01118         BCF     STATUS,0
                      01119 ;; >>> /home/sdcc-builder/build/sdcc-build/orig/sdcc/src/pic14/gen.c:5404:loadSignToC
010E   ???? ????      01120         BANKSEL r0x1005
0110   1B??           01121         BTFSC   r0x1005,7
                      01122 ;; >>> /home/sdcc-builder/build/sdcc-build/orig/sdcc/src/pic14/gen.c:5405:loadSignToC
0111   1403           01123         BSF     STATUS,0
                      01124 ;;; /home/sdcc-builder/build/sdcc-build/orig/sdcc/src/pic14/gen.c:5369:genMultiAsm *{*
                      01125 ;; ***  genMultiAsm  5370
                      01126 ;; >>> /home/sdcc-builder/build/sdcc-build/orig/sdcc/src/pic14/gen.c:5387:genMultiAsm
                      01127 ;;      1109 rIdx = r0x1060 
0112   0C??           01128         RRF     r0x1005,F
                      01129 ;; >>> /home/sdcc-builder/build/sdcc-build/orig/sdcc/src/pic14/gen.c:5387:genMultiAsm
                      01130 ;;      1109 rIdx = r0x105F 
0113   0C??           01131         RRF     r0x1004,F
                      01132 ;; >>> /home/sdcc-builder/build/sdcc-build/orig/sdcc/src/pic14/gen.c:5501:genGenericShift
0114   3E01           01133         ADDLW   0x01
                      01134 ;; >>> /home/sdcc-builder/build/sdcc-build/orig/sdcc/src/pic14/gen.c:5502:genGenericShift
0115   1C03           01135         BTFSS   STATUS,0
                      01136 ;; >>> /home/sdcc-builder/build/sdcc-build/orig/sdcc/src/pic14/gen.c:5503:genGenericShift
                      01137 ;; ***  popGetLabel  key=32, label offset 105
0116   2???           01138         GOTO    _00237_DS_
                      01139 ;;; /home/sdcc-builder/build/sdcc-build/orig/sdcc/src/pic14/gen.c:2316:resultRemat *{*
                      01140 ;;; /home/sdcc-builder/build/sdcc-build/orig/sdcc/src/pic14/gen.c:7120:genCast *{*
                      01141 ;; ***  genCast  7121
                      01142 ;;      694 register type nRegs=2
                      01143 ;;      694 register type nRegs=1
                      01144 ;;      line = 7129 result AOP_REG=r0x105D, size=1, left -=-, size=0, right AOP_REG=r0x105F, size=2
                      01145 ;; ***  genCast  7253
                      01146 ;; >>> /home/sdcc-builder/build/sdcc-build/orig/sdcc/src/pic14/gen.c:7277:genCast
                      01147 ;;      1109 rIdx = r0x105F 
0117                  01148 _00238_DS_
0117   ???? ????      01149         BANKSEL r0x1004
0119   08??           01150         MOVF    r0x1004,W
                      01151 ;; >>> /home/sdcc-builder/build/sdcc-build/orig/sdcc/src/pic14/gen.c:7278:genCast
gpasm-1.4.0 #1106 (Oct  6 2014) obj\Debug\gpi   6-23-2020  11:52:00         PAGE 23


LOC    OBJECT CODE    LINE  SOURCE TEXT
  VALUE

                      01152 ;;      1109 rIdx = r0x105D 
011A   00??           01153         MOVWF   r0x1002
                      01154 ;;; /home/sdcc-builder/build/sdcc-build/orig/sdcc/src/pic14/gen.c:2316:resultRemat *{*
                      01155 ;;; /home/sdcc-builder/build/sdcc-build/orig/sdcc/src/pic14/gen.c:2760:genLabel *{*
                      01156 ;; ***  genLabel  2763
                      01157 ;;; /home/sdcc-builder/build/sdcc-build/orig/sdcc/src/pic14/gen.c:2316:resultRemat *{*
                      01158 ;;; /home/sdcc-builder/build/sdcc-build/orig/sdcc/src/pic14/gen.c:2683:genRet *{*
                      01159 ;; ***  genRet  2685
                      01160 ;;      694 register type nRegs=1
                      01161 ;;; /home/sdcc-builder/build/sdcc-build/orig/sdcc/src/pic14/gen.c:1343:mov2w_op *{*
                      01162 ;; ***  mov2w  1381  offset=0
                      01163 ;; >>> /home/sdcc-builder/build/sdcc-build/orig/sdcc/src/pic14/gen.c:1386:mov2w
                      01164 ;;      1109 rIdx = r0x105D 
011B                  01165 _00211_DS_
                      01166         .line   101; "gpio.c"   return ret;
011B   ???? ????      01167         BANKSEL r0x1002
011D   08??           01168         MOVF    r0x1002,W
                      01169 ;;; /home/sdcc-builder/build/sdcc-build/orig/sdcc/src/pic14/gen.c:2316:resultRemat *{*
                      01170 ;;; /home/sdcc-builder/build/sdcc-build/orig/sdcc/src/pic14/gen.c:2760:genLabel *{*
                      01171 ;; ***  genLabel  2763
                      01172 ;;; /home/sdcc-builder/build/sdcc-build/orig/sdcc/src/pic14/gen.c:2316:resultRemat *{*
                      01173 ;;; /home/sdcc-builder/build/sdcc-build/orig/sdcc/src/pic14/gen.c:2528:genEndFunction *{*
                      01174 ;; ***  genEndFunction  2530
011E   0008           01175         RETURN  
                      01176 ; exit point of _GPIO_GetPortPinState
                      01177 
                      01178 ;***
                      01179 ;  pBlock Stats: dbName = C
                      01180 ;***
                      01181 ;entry:  _GPIO_SetPortState     ;Function start
                      01182 ; 2 exit points
                      01183 ;has an exit
                      01184 ;functions called:
                      01185 ;   _GPIO_SetPortPinState
                      01186 ;   _GPIO_SetPortPinState
                      01187 ;9 compiler assigned registers:
                      01188 ;   r0x100A
                      01189 ;   STK00
                      01190 ;   r0x100B
                      01191 ;   r0x100C
                      01192 ;   r0x100D
                      01193 ;   r0x100E
                      01194 ;   r0x100F
                      01195 ;   r0x1010
                      01196 ;   STK01
                      01197 ;; Starting pCode block
                      01198 ;;; /home/sdcc-builder/build/sdcc-build/orig/sdcc/src/pic14/gen.c:2316:resultRemat *{*
                      01199 ;;; /home/sdcc-builder/build/sdcc-build/orig/sdcc/src/pic14/gen.c:2760:genLabel *{*
                      01200 ;; ***  genLabel  2763
                      01201 ;;; /home/sdcc-builder/build/sdcc-build/orig/sdcc/src/pic14/gen.c:2316:resultRemat *{*
                      01202 ;;; /home/sdcc-builder/build/sdcc-build/orig/sdcc/src/pic14/gen.c:2340:genFunction *{*
                      01203 ;; ***  genFunction  2342 curr label offset=51previous max_key=33 
011F                  01204 _GPIO_SetPortState      ;Function start
gpasm-1.4.0 #1106 (Oct  6 2014) obj\Debug\gpi   6-23-2020  11:52:00         PAGE 24


LOC    OBJECT CODE    LINE  SOURCE TEXT
  VALUE

                      01205 ; 2 exit points
                      01206 ;;; /home/sdcc-builder/build/sdcc-build/orig/sdcc/src/pic14/gen.c:2316:resultRemat *{*
                      01207 ;;; /home/sdcc-builder/build/sdcc-build/orig/sdcc/src/pic14/gen.c:7358:genReceive *{*
                      01208 ;; ***  genReceive  7359
                      01209 ;;      694 register type nRegs=1
                      01210 ;;; /home/sdcc-builder/build/sdcc-build/orig/sdcc/src/pic14/gen.c:1907:assignResultValue *{*
                      01211 ;; ***  assignResultValue  1909
                      01212 ;;      line = 1911 result -=-, size=0, left AOP_REG=r0x1054, size=1, right -=-, size=0
                      01213 ;; >>> /home/sdcc-builder/build/sdcc-build/orig/sdcc/src/pic14/gen.c:1393:movwf
                      01214 ;;      1109 rIdx = r0x1054 
                      01215         .line   68; "gpio.c"    void GPIO_SetPortState(tPort port, unsigned char state)
011F   ???? ????      01216         BANKSEL r0x100A
0121   00??           01217         MOVWF   r0x100A
                      01218 ;;; /home/sdcc-builder/build/sdcc-build/orig/sdcc/src/pic14/gen.c:2316:resultRemat *{*
                      01219 ;;; /home/sdcc-builder/build/sdcc-build/orig/sdcc/src/pic14/gen.c:7358:genReceive *{*
                      01220 ;; ***  genReceive  7359
                      01221 ;;      694 register type nRegs=1
                      01222 ;;; /home/sdcc-builder/build/sdcc-build/orig/sdcc/src/pic14/gen.c:1907:assignResultValue *{*
                      01223 ;; ***  assignResultValue  1909
                      01224 ;;      line = 1911 result -=-, size=0, left AOP_REG=r0x1055, size=1, right -=-, size=0
                      01225 ;; >>> /home/sdcc-builder/build/sdcc-build/orig/sdcc/src/pic14/gen.c:1423:get_returnvalue
                      01226 ;; ***  popRegFromIdx,1042  , rIdx=0x7f
0122   08??           01227         MOVF    STK00,W
                      01228 ;; >>> /home/sdcc-builder/build/sdcc-build/orig/sdcc/src/pic14/gen.c:1393:movwf
                      01229 ;;      1109 rIdx = r0x1055 
0123   00??           01230         MOVWF   r0x100B
                      01231 ;;; /home/sdcc-builder/build/sdcc-build/orig/sdcc/src/pic14/gen.c:2316:resultRemat *{*
                      01232 ;;; /home/sdcc-builder/build/sdcc-build/orig/sdcc/src/pic14/gen.c:6927:genAssign *{*
                      01233 ;; ***  genAssign  6928
                      01234 ;;      694 register type nRegs=1
                      01235 ;;      line = 6937 result AOP_REG=r0x1056, size=1, left -=-, size=0, right AOP_LIT=0x00, size=1
                      01236 ;; ***  genAssign  7023
                      01237 ;; >>> /home/sdcc-builder/build/sdcc-build/orig/sdcc/src/pic14/gen.c:7035:genAssign
                      01238 ;;      1109 rIdx = r0x1056 
                      01239         .line   72; "gpio.c"    for (i = 0; i < 8; i++)
0124   01??           01240         CLRF    r0x100C
                      01241 ;;; /home/sdcc-builder/build/sdcc-build/orig/sdcc/src/pic14/gen.c:2316:resultRemat *{*
                      01242 ;;; /home/sdcc-builder/build/sdcc-build/orig/sdcc/src/pic14/gen.c:2760:genLabel *{*
                      01243 ;; ***  genLabel  2763
                      01244 ;;; /home/sdcc-builder/build/sdcc-build/orig/sdcc/src/pic14/gen.c:2316:resultRemat *{*
                      01245 ;;; /home/sdcc-builder/build/sdcc-build/orig/sdcc/src/pic14/gen.c:5418:genGenericShift *{*
                      01246 ;; ***  genGenericShift  5421
                      01247 ;;      694 register type nRegs=1
                      01248 ;;      694 register type nRegs=2
                      01249 ;; ***  mov2w  1381  offset=1
                      01250 ;; >>> /home/sdcc-builder/build/sdcc-build/orig/sdcc/src/pic14/gen.c:1384:mov2w
0125                  01251 _00190_DS_
                      01252         .line   74; "gpio.c"    GPIO_SetPortPinState(port, i, READ_REGISTER_PIN(state, i));
0125   3000           01253         MOVLW   0x00
                      01254 ;; >>> /home/sdcc-builder/build/sdcc-build/orig/sdcc/src/pic14/gen.c:1393:movwf
                      01255 ;;      1109 rIdx = r0x1058 
0126   ???? ????      01256         BANKSEL r0x100D
0128   00??           01257         MOVWF   r0x100D
gpasm-1.4.0 #1106 (Oct  6 2014) obj\Debug\gpi   6-23-2020  11:52:00         PAGE 25


LOC    OBJECT CODE    LINE  SOURCE TEXT
  VALUE

                      01258 ;; ***  mov2w  1381  offset=0
                      01259 ;; >>> /home/sdcc-builder/build/sdcc-build/orig/sdcc/src/pic14/gen.c:1384:mov2w
0129   3001           01260         MOVLW   0x01
                      01261 ;; >>> /home/sdcc-builder/build/sdcc-build/orig/sdcc/src/pic14/gen.c:1393:movwf
                      01262 ;;      1109 rIdx = r0x1057 
012A   00??           01263         MOVWF   r0x100E
                      01264 ;; ***  addSign  861
                      01265 ;;; /home/sdcc-builder/build/sdcc-build/orig/sdcc/src/pic14/genarith.c:862:addSign *{*
                      01266 ;; ***  mov2w  1381  offset=0
                      01267 ;; >>> /home/sdcc-builder/build/sdcc-build/orig/sdcc/src/pic14/gen.c:1386:mov2w
                      01268 ;;      1109 rIdx = r0x1056 
012B   08??           01269         MOVF    r0x100C,W
                      01270 ;; >>> /home/sdcc-builder/build/sdcc-build/orig/sdcc/src/pic14/gen.c:5492:genGenericShift
012C   3C00           01271         SUBLW   0x00
                      01272 ;; >>> /home/sdcc-builder/build/sdcc-build/orig/sdcc/src/pic14/gen.c:5494:genGenericShift
012D   1903           01273         BTFSC   STATUS,2
                      01274 ;; >>> /home/sdcc-builder/build/sdcc-build/orig/sdcc/src/pic14/gen.c:5495:genGenericShift
                      01275 ;; ***  popGetLabel  key=11, label offset 88
012E   2???           01276         GOTO    _00199_DS_
                      01277 ;;; /home/sdcc-builder/build/sdcc-build/orig/sdcc/src/pic14/gen.c:5369:genMultiAsm *{*
                      01278 ;; ***  genMultiAsm  5370
                      01279 ;; >>> /home/sdcc-builder/build/sdcc-build/orig/sdcc/src/pic14/gen.c:5387:genMultiAsm
                      01280 ;;      1109 rIdx = r0x1057 
012F                  01281 _00198_DS_
012F   ???? ????      01282         BANKSEL r0x100E
0131   0D??           01283         RLF     r0x100E,F
                      01284 ;; >>> /home/sdcc-builder/build/sdcc-build/orig/sdcc/src/pic14/gen.c:5387:genMultiAsm
                      01285 ;;      1109 rIdx = r0x1058 
0132   0D??           01286         RLF     r0x100D,F
                      01287 ;; >>> /home/sdcc-builder/build/sdcc-build/orig/sdcc/src/pic14/gen.c:5501:genGenericShift
0133   3E01           01288         ADDLW   0x01
                      01289 ;; >>> /home/sdcc-builder/build/sdcc-build/orig/sdcc/src/pic14/gen.c:5502:genGenericShift
0134   1C03           01290         BTFSS   STATUS,0
                      01291 ;; >>> /home/sdcc-builder/build/sdcc-build/orig/sdcc/src/pic14/gen.c:5503:genGenericShift
                      01292 ;; ***  popGetLabel  key=10, label offset 88
0135   2???           01293         GOTO    _00198_DS_
                      01294 ;;; /home/sdcc-builder/build/sdcc-build/orig/sdcc/src/pic14/gen.c:2316:resultRemat *{*
                      01295 ;;; /home/sdcc-builder/build/sdcc-build/orig/sdcc/src/pic14/gen.c:7120:genCast *{*
                      01296 ;; ***  genCast  7121
                      01297 ;;      694 register type nRegs=1
                      01298 ;;      694 register type nRegs=2
                      01299 ;;      line = 7129 result AOP_REG=r0x1059, size=2, left -=-, size=0, right AOP_REG=r0x1055, size=1
                      01300 ;; >>> /home/sdcc-builder/build/sdcc-build/orig/sdcc/src/pic14/gen.c:7298:genCast
                      01301 ;;      1109 rIdx = r0x1055 
                      01302 ;;100   MOVF    r0x100B,W
                      01303 ;; >>> /home/sdcc-builder/build/sdcc-build/orig/sdcc/src/pic14/gen.c:7299:genCast
                      01304 ;;      1109 rIdx = r0x1059 
                      01305 ;; ***  addSign  861
                      01306 ;;; /home/sdcc-builder/build/sdcc-build/orig/sdcc/src/pic14/genarith.c:862:addSign *{*
                      01307 ;; >>> /home/sdcc-builder/build/sdcc-build/orig/sdcc/src/pic14/genarith.c:881:addSign
                      01308 ;;      1109 rIdx = r0x105A 
0136                  01309 _00199_DS_
0136   ???? ????      01310         BANKSEL r0x1010
gpasm-1.4.0 #1106 (Oct  6 2014) obj\Debug\gpi   6-23-2020  11:52:00         PAGE 26


LOC    OBJECT CODE    LINE  SOURCE TEXT
  VALUE

0138   01??           01311         CLRF    r0x1010
                      01312 ;;; /home/sdcc-builder/build/sdcc-build/orig/sdcc/src/pic14/gen.c:2316:resultRemat *{*
                      01313 ;;; /home/sdcc-builder/build/sdcc-build/orig/sdcc/src/pic14/gen.c:3919:genAnd *{*
                      01314 ;; ***  genAnd  3920
                      01315 ;;      694 register type nRegs=2
                      01316 ;;      694 register type nRegs=2
                      01317 ;;      694 register type nRegs=2
                      01318 ;;      line = 3955 result AOP_REG=r0x1057, size=2, left AOP_REG=r0x1057, size=2, right AOP_REG=r0x1059,
                             size=2
                      01319 ;; >>> /home/sdcc-builder/build/sdcc-build/orig/sdcc/src/pic14/gen.c:4137:genAnd
                      01320 ;;      1109 rIdx = r0x1059 
                      01321 ;;99    MOVF    r0x100F,W
0139   08??           01322         MOVF    r0x100B,W
013A   00??           01323         MOVWF   r0x100F
                      01324 ;; >>> /home/sdcc-builder/build/sdcc-build/orig/sdcc/src/pic14/gen.c:4138:genAnd
                      01325 ;;      1109 rIdx = r0x1057 
013B   05??           01326         ANDWF   r0x100E,F
                      01327 ;; >>> /home/sdcc-builder/build/sdcc-build/orig/sdcc/src/pic14/gen.c:4137:genAnd
                      01328 ;;      1109 rIdx = r0x105A 
013C   3000           01329         MOVLW   0x00
                      01330 ;; >>> /home/sdcc-builder/build/sdcc-build/orig/sdcc/src/pic14/gen.c:4138:genAnd
                      01331 ;;      1109 rIdx = r0x1058 
013D   05??           01332         ANDWF   r0x100D,F
                      01333 ;;; /home/sdcc-builder/build/sdcc-build/orig/sdcc/src/pic14/gen.c:2316:resultRemat *{*
                      01334 ;;; /home/sdcc-builder/build/sdcc-build/orig/sdcc/src/pic14/gen.c:5418:genGenericShift *{*
                      01335 ;; ***  genGenericShift  5421
                      01336 ;;      694 register type nRegs=1
                      01337 ;;      694 register type nRegs=2
                      01338 ;;      694 register type nRegs=2
                      01339 ;; ***  mov2w  1381  offset=1
                      01340 ;; >>> /home/sdcc-builder/build/sdcc-build/orig/sdcc/src/pic14/gen.c:1386:mov2w
                      01341 ;;      1109 rIdx = r0x1058 
013E   08??           01342         MOVF    r0x100D,W
                      01343 ;; >>> /home/sdcc-builder/build/sdcc-build/orig/sdcc/src/pic14/gen.c:1393:movwf
                      01344 ;;      1109 rIdx = r0x105A 
013F   00??           01345         MOVWF   r0x1010
                      01346 ;; ***  mov2w  1381  offset=0
                      01347 ;; >>> /home/sdcc-builder/build/sdcc-build/orig/sdcc/src/pic14/gen.c:1386:mov2w
                      01348 ;;      1109 rIdx = r0x1057 
0140   08??           01349         MOVF    r0x100E,W
                      01350 ;; >>> /home/sdcc-builder/build/sdcc-build/orig/sdcc/src/pic14/gen.c:1393:movwf
                      01351 ;;      1109 rIdx = r0x1059 
0141   00??           01352         MOVWF   r0x100F
                      01353 ;; ***  addSign  861
                      01354 ;;; /home/sdcc-builder/build/sdcc-build/orig/sdcc/src/pic14/genarith.c:862:addSign *{*
                      01355 ;; ***  mov2w  1381  offset=0
                      01356 ;; >>> /home/sdcc-builder/build/sdcc-build/orig/sdcc/src/pic14/gen.c:1386:mov2w
                      01357 ;;      1109 rIdx = r0x1056 
0142   08??           01358         MOVF    r0x100C,W
                      01359 ;; >>> /home/sdcc-builder/build/sdcc-build/orig/sdcc/src/pic14/gen.c:5492:genGenericShift
0143   3C00           01360         SUBLW   0x00
                      01361 ;; >>> /home/sdcc-builder/build/sdcc-build/orig/sdcc/src/pic14/gen.c:5494:genGenericShift
0144   1903           01362         BTFSC   STATUS,2
gpasm-1.4.0 #1106 (Oct  6 2014) obj\Debug\gpi   6-23-2020  11:52:00         PAGE 27


LOC    OBJECT CODE    LINE  SOURCE TEXT
  VALUE

                      01363 ;; >>> /home/sdcc-builder/build/sdcc-build/orig/sdcc/src/pic14/gen.c:5495:genGenericShift
                      01364 ;; ***  popGetLabel  key=13, label offset 88
0145   2???           01365         GOTO    _00201_DS_
                      01366 ;;; /home/sdcc-builder/build/sdcc-build/orig/sdcc/src/pic14/gen.c:5400:loadSignToC *{*
                      01367 ;; >>> /home/sdcc-builder/build/sdcc-build/orig/sdcc/src/pic14/gen.c:5403:loadSignToC
0146                  01368 _00200_DS_
0146   1003           01369         BCF     STATUS,0
                      01370 ;; >>> /home/sdcc-builder/build/sdcc-build/orig/sdcc/src/pic14/gen.c:5404:loadSignToC
0147   ???? ????      01371         BANKSEL r0x1010
0149   1B??           01372         BTFSC   r0x1010,7
                      01373 ;; >>> /home/sdcc-builder/build/sdcc-build/orig/sdcc/src/pic14/gen.c:5405:loadSignToC
014A   1403           01374         BSF     STATUS,0
                      01375 ;;; /home/sdcc-builder/build/sdcc-build/orig/sdcc/src/pic14/gen.c:5369:genMultiAsm *{*
                      01376 ;; ***  genMultiAsm  5370
                      01377 ;; >>> /home/sdcc-builder/build/sdcc-build/orig/sdcc/src/pic14/gen.c:5387:genMultiAsm
                      01378 ;;      1109 rIdx = r0x105A 
014B   0C??           01379         RRF     r0x1010,F
                      01380 ;; >>> /home/sdcc-builder/build/sdcc-build/orig/sdcc/src/pic14/gen.c:5387:genMultiAsm
                      01381 ;;      1109 rIdx = r0x1059 
014C   0C??           01382         RRF     r0x100F,F
                      01383 ;; >>> /home/sdcc-builder/build/sdcc-build/orig/sdcc/src/pic14/gen.c:5501:genGenericShift
014D   3E01           01384         ADDLW   0x01
                      01385 ;; >>> /home/sdcc-builder/build/sdcc-build/orig/sdcc/src/pic14/gen.c:5502:genGenericShift
014E   1C03           01386         BTFSS   STATUS,0
                      01387 ;; >>> /home/sdcc-builder/build/sdcc-build/orig/sdcc/src/pic14/gen.c:5503:genGenericShift
                      01388 ;; ***  popGetLabel  key=12, label offset 88
014F   2???           01389         GOTO    _00200_DS_
                      01390 ;;; /home/sdcc-builder/build/sdcc-build/orig/sdcc/src/pic14/gen.c:2316:resultRemat *{*
                      01391 ;;; /home/sdcc-builder/build/sdcc-build/orig/sdcc/src/pic14/gen.c:7120:genCast *{*
                      01392 ;; ***  genCast  7121
                      01393 ;;      694 register type nRegs=2
                      01394 ;;      694 register type nRegs=1
                      01395 ;;      line = 7129 result AOP_REG=r0x1057, size=1, left -=-, size=0, right AOP_REG=r0x1059, size=2
                      01396 ;; ***  genCast  7253
                      01397 ;; >>> /home/sdcc-builder/build/sdcc-build/orig/sdcc/src/pic14/gen.c:7277:genCast
                      01398 ;;      1109 rIdx = r0x1059 
0150                  01399 _00201_DS_
0150   ???? ????      01400         BANKSEL r0x100F
0152   08??           01401         MOVF    r0x100F,W
                      01402 ;; >>> /home/sdcc-builder/build/sdcc-build/orig/sdcc/src/pic14/gen.c:7278:genCast
                      01403 ;;      1109 rIdx = r0x1057 
0153   00??           01404         MOVWF   r0x100E
0154   00??           01405         MOVWF   STK01
                      01406 ;;; /home/sdcc-builder/build/sdcc-build/orig/sdcc/src/pic14/gen.c:1343:mov2w_op *{*
                      01407 ;; ***  mov2w  1381  offset=0
                      01408 ;; >>> /home/sdcc-builder/build/sdcc-build/orig/sdcc/src/pic14/gen.c:1386:mov2w
                      01409 ;;      1109 rIdx = r0x1056 
0155   08??           01410         MOVF    r0x100C,W
                      01411 ;;      694 register type nRegs=1
                      01412 ;;      2135 left AOP_REG
                      01413 ;; >>> /home/sdcc-builder/build/sdcc-build/orig/sdcc/src/pic14/gen.c:2143:genCall
                      01414 ;; ***  popRegFromIdx,1042  , rIdx=0x7f
0156   00??           01415         MOVWF   STK00
gpasm-1.4.0 #1106 (Oct  6 2014) obj\Debug\gpi   6-23-2020  11:52:00         PAGE 28


LOC    OBJECT CODE    LINE  SOURCE TEXT
  VALUE

                      01416 ;;; /home/sdcc-builder/build/sdcc-build/orig/sdcc/src/pic14/gen.c:1343:mov2w_op *{*
                      01417 ;; ***  mov2w  1381  offset=0
                      01418 ;; >>> /home/sdcc-builder/build/sdcc-build/orig/sdcc/src/pic14/gen.c:1386:mov2w
                      01419 ;;      1109 rIdx = r0x1054 
0157   08??           01420         MOVF    r0x100A,W
                      01421 ;; >>> /home/sdcc-builder/build/sdcc-build/orig/sdcc/src/pic14/gen.c:2175:genCall
0158   2???           01422         CALL    _GPIO_SetPortPinState
                      01423 ;;; /home/sdcc-builder/build/sdcc-build/orig/sdcc/src/pic14/gen.c:1845:unsaveRegisters *{*
                      01424 ;; ***  unsaveRegisters  1847
                      01425 ;;; /home/sdcc-builder/build/sdcc-build/orig/sdcc/src/pic14/gen.c:2316:resultRemat *{*
                      01426 ;; ***  genPlus  611
                      01427 ;;; /home/sdcc-builder/build/sdcc-build/orig/sdcc/src/pic14/genarith.c:612:genPlus *{*
                      01428 ;;      694 register type nRegs=1
                      01429 ;;      575
                      01430 ;;      line = 618 result AOP_REG=r0x1056, size=1, left AOP_REG=r0x1056, size=1, right AOP_LIT=0x01, siz
                            e=1
                      01431 ;;; /home/sdcc-builder/build/sdcc-build/orig/sdcc/src/pic14/genarith.c:142:genPlusIncr *{*
                      01432 ;; ***  genPlusIncr  144
                      01433 ;;      result AOP_REG, left AOP_REG, right AOP_LIT
                      01434 ;;      genPlusIncr  156
                      01435 ;; >>> /home/sdcc-builder/build/sdcc-build/orig/sdcc/src/pic14/genarith.c:168:genPlusIncr
                      01436 ;;      1109 rIdx = r0x1056 
                      01437         .line   72; "gpio.c"    for (i = 0; i < 8; i++)
0159   ???? ????      01438         BANKSEL r0x100C
015B   0A??           01439         INCF    r0x100C,F
                      01440 ;;; /home/sdcc-builder/build/sdcc-build/orig/sdcc/src/pic14/gen.c:2316:resultRemat *{*
                      01441 ;;; /home/sdcc-builder/build/sdcc-build/orig/sdcc/src/pic14/gen.c:3583:genCmpLt *{*
                      01442 ;; ***  genCmpLt  3584
                      01443 ;;      694 register type nRegs=1
                      01444 ;;; /home/sdcc-builder/build/sdcc-build/orig/sdcc/src/pic14/gen.c:3294:genCmp *{*
                      01445 ;;unsigned compare: left < lit(0x8=8), size=1
                      01446 ;; >>> /home/sdcc-builder/build/sdcc-build/orig/sdcc/src/pic14/gen.c:3265:pic14_mov2w_regOrLit
015C   3008           01447         MOVLW   0x08
                      01448 ;; >>> /home/sdcc-builder/build/sdcc-build/orig/sdcc/src/pic14/gen.c:3432:genCmp
                      01449 ;;      1109 rIdx = r0x1056 
015D   02??           01450         SUBWF   r0x100C,W
                      01451 ;;; /home/sdcc-builder/build/sdcc-build/orig/sdcc/src/pic14/gen.c:3237:genSkipc *{*
                      01452 ;; >>> /home/sdcc-builder/build/sdcc-build/orig/sdcc/src/pic14/gen.c:3244:genSkipc
015E   1C03           01453         BTFSS   STATUS,0
                      01454 ;; >>> /home/sdcc-builder/build/sdcc-build/orig/sdcc/src/pic14/gen.c:3246:genSkipc
                      01455 ;; ***  popGetLabel  key=2, label offset 88
015F   2???           01456         GOTO    _00190_DS_
                      01457 ;;genSkipc:3247: created from rifx:027A5DF4
                      01458 ;;; /home/sdcc-builder/build/sdcc-build/orig/sdcc/src/pic14/gen.c:2316:resultRemat *{*
                      01459 ;;; /home/sdcc-builder/build/sdcc-build/orig/sdcc/src/pic14/gen.c:2316:resultRemat *{*
                      01460 ;;; /home/sdcc-builder/build/sdcc-build/orig/sdcc/src/pic14/gen.c:2760:genLabel *{*
                      01461 ;; ***  genLabel  2763
                      01462 ;;; /home/sdcc-builder/build/sdcc-build/orig/sdcc/src/pic14/gen.c:2316:resultRemat *{*
                      01463 ;;; /home/sdcc-builder/build/sdcc-build/orig/sdcc/src/pic14/gen.c:2528:genEndFunction *{*
                      01464 ;; ***  genEndFunction  2530
0160   0008           01465         RETURN  
                      01466 ; exit point of _GPIO_SetPortState
                      01467 ;;; /home/sdcc-builder/build/sdcc-build/orig/sdcc/src/pic14/gen.c:7426:genpic14Code *{*
gpasm-1.4.0 #1106 (Oct  6 2014) obj\Debug\gpi   6-23-2020  11:52:00         PAGE 29


LOC    OBJECT CODE    LINE  SOURCE TEXT
  VALUE

                      01468 
                      01469 ;***
                      01470 ;  pBlock Stats: dbName = C
                      01471 ;***
                      01472 ;entry:  _GPIO_SetPortPinState  ;Function start
                      01473 ; 2 exit points
                      01474 ;has an exit
                      01475 ;6 compiler assigned registers:
                      01476 ;   r0x1006
                      01477 ;   STK00
                      01478 ;   r0x1007
                      01479 ;   STK01
                      01480 ;   r0x1008
                      01481 ;   r0x1009
                      01482 ;; Starting pCode block
                      01483 ;;; /home/sdcc-builder/build/sdcc-build/orig/sdcc/src/pic14/gen.c:2316:resultRemat *{*
                      01484 ;;; /home/sdcc-builder/build/sdcc-build/orig/sdcc/src/pic14/gen.c:2760:genLabel *{*
                      01485 ;; ***  genLabel  2763
                      01486 ;;; /home/sdcc-builder/build/sdcc-build/orig/sdcc/src/pic14/gen.c:2316:resultRemat *{*
                      01487 ;;; /home/sdcc-builder/build/sdcc-build/orig/sdcc/src/pic14/gen.c:2340:genFunction *{*
                      01488 ;; ***  genFunction  2342 curr label offset=47previous max_key=0 
0161                  01489 _GPIO_SetPortPinState   ;Function start
                      01490 ; 2 exit points
                      01491 ;;; /home/sdcc-builder/build/sdcc-build/orig/sdcc/src/pic14/gen.c:2316:resultRemat *{*
                      01492 ;;; /home/sdcc-builder/build/sdcc-build/orig/sdcc/src/pic14/gen.c:7358:genReceive *{*
                      01493 ;; ***  genReceive  7359
                      01494 ;;      694 register type nRegs=1
                      01495 ;;; /home/sdcc-builder/build/sdcc-build/orig/sdcc/src/pic14/gen.c:1907:assignResultValue *{*
                      01496 ;; ***  assignResultValue  1909
                      01497 ;;      line = 1911 result -=-, size=0, left AOP_REG=r0x104F, size=1, right -=-, size=0
                      01498 ;; >>> /home/sdcc-builder/build/sdcc-build/orig/sdcc/src/pic14/gen.c:1393:movwf
                      01499 ;;      1109 rIdx = r0x104F 
                      01500         .line   46; "gpio.c"    void GPIO_SetPortPinState(tPort port, unsigned char pin, unsigned char s
                            tate)
0161   ???? ????      01501         BANKSEL r0x1006
0163   00??           01502         MOVWF   r0x1006
                      01503 ;;; /home/sdcc-builder/build/sdcc-build/orig/sdcc/src/pic14/gen.c:2316:resultRemat *{*
                      01504 ;;; /home/sdcc-builder/build/sdcc-build/orig/sdcc/src/pic14/gen.c:7358:genReceive *{*
                      01505 ;; ***  genReceive  7359
                      01506 ;;      694 register type nRegs=1
                      01507 ;;; /home/sdcc-builder/build/sdcc-build/orig/sdcc/src/pic14/gen.c:1907:assignResultValue *{*
                      01508 ;; ***  assignResultValue  1909
                      01509 ;;      line = 1911 result -=-, size=0, left AOP_REG=r0x1050, size=1, right -=-, size=0
                      01510 ;; >>> /home/sdcc-builder/build/sdcc-build/orig/sdcc/src/pic14/gen.c:1423:get_returnvalue
                      01511 ;; ***  popRegFromIdx,1042  , rIdx=0x7f
0164   08??           01512         MOVF    STK00,W
                      01513 ;; >>> /home/sdcc-builder/build/sdcc-build/orig/sdcc/src/pic14/gen.c:1393:movwf
                      01514 ;;      1109 rIdx = r0x1050 
0165   00??           01515         MOVWF   r0x1007
                      01516 ;;; /home/sdcc-builder/build/sdcc-build/orig/sdcc/src/pic14/gen.c:2316:resultRemat *{*
                      01517 ;;; /home/sdcc-builder/build/sdcc-build/orig/sdcc/src/pic14/gen.c:7358:genReceive *{*
                      01518 ;; ***  genReceive  7359
                      01519 ;;      694 register type nRegs=1
gpasm-1.4.0 #1106 (Oct  6 2014) obj\Debug\gpi   6-23-2020  11:52:00         PAGE 30


LOC    OBJECT CODE    LINE  SOURCE TEXT
  VALUE

                      01520 ;;; /home/sdcc-builder/build/sdcc-build/orig/sdcc/src/pic14/gen.c:1907:assignResultValue *{*
                      01521 ;; ***  assignResultValue  1909
                      01522 ;;      line = 1911 result -=-, size=0, left AOP_REG=r0x1051, size=1, right -=-, size=0
                      01523 ;; >>> /home/sdcc-builder/build/sdcc-build/orig/sdcc/src/pic14/gen.c:1423:get_returnvalue
                      01524 ;; ***  popRegFromIdx,1042  , rIdx=0x7e
0166   08??           01525         MOVF    STK01,W
                      01526 ;; >>> /home/sdcc-builder/build/sdcc-build/orig/sdcc/src/pic14/gen.c:1393:movwf
                      01527 ;;      1109 rIdx = r0x1051 
0167   00??           01528         MOVWF   r0x1008
                      01529 ;;; /home/sdcc-builder/build/sdcc-build/orig/sdcc/src/pic14/gen.c:2316:resultRemat *{*
                      01530 ;;; /home/sdcc-builder/build/sdcc-build/orig/sdcc/src/pic14/gen.c:3547:genCmpGt *{*
                      01531 ;; ***  genCmpGt  3548
                      01532 ;;      694 register type nRegs=1
                      01533 ;;; /home/sdcc-builder/build/sdcc-build/orig/sdcc/src/pic14/gen.c:3294:genCmp *{*
                      01534 ;;swapping arguments (AOP_TYPEs 1/2)
                      01535 ;;unsigned compare: left >= lit(0x5=5), size=1
                      01536 ;; >>> /home/sdcc-builder/build/sdcc-build/orig/sdcc/src/pic14/gen.c:3265:pic14_mov2w_regOrLit
                      01537         .line   48; "gpio.c"    switch(port)
0168   3005           01538         MOVLW   0x05
                      01539 ;; >>> /home/sdcc-builder/build/sdcc-build/orig/sdcc/src/pic14/gen.c:3432:genCmp
                      01540 ;;      1109 rIdx = r0x104F 
0169   02??           01541         SUBWF   r0x1006,W
                      01542 ;;; /home/sdcc-builder/build/sdcc-build/orig/sdcc/src/pic14/gen.c:3237:genSkipc *{*
                      01543 ;; >>> /home/sdcc-builder/build/sdcc-build/orig/sdcc/src/pic14/gen.c:3242:genSkipc
016A   1803           01544         BTFSC   STATUS,0
                      01545 ;; >>> /home/sdcc-builder/build/sdcc-build/orig/sdcc/src/pic14/gen.c:3246:genSkipc
                      01546 ;; ***  popGetLabel  key=7, label offset 51
016B   2???           01547         GOTO    _00158_DS_
                      01548 ;;genSkipc:3247: created from rifx:027A5DF4
                      01549 ;;; /home/sdcc-builder/build/sdcc-build/orig/sdcc/src/pic14/gen.c:2316:resultRemat *{*
                      01550 ;;; /home/sdcc-builder/build/sdcc-build/orig/sdcc/src/pic14/gen.c:2316:resultRemat *{*
                      01551 ;;; /home/sdcc-builder/build/sdcc-build/orig/sdcc/src/pic14/gen.c:7071:genJumpTab *{*
                      01552 ;; ***  genJumpTab  7072
                      01553 ;;      694 register type nRegs=1
                      01554 ;; >>> /home/sdcc-builder/build/sdcc-build/orig/sdcc/src/pic14/gen.c:7087:genJumpTab
                      01555 ;; ***  popGetLabel  key=13, label offset 51
016C   30??           01556         MOVLW   HIGH(_00164_DS_)
                      01557 ;; >>> /home/sdcc-builder/build/sdcc-build/orig/sdcc/src/pic14/gen.c:7088:genJumpTab
016D   1283 1303      01558         BANKSEL PCLATH
016F   008A           01559         MOVWF   PCLATH
                      01560 ;; >>> /home/sdcc-builder/build/sdcc-build/orig/sdcc/src/pic14/gen.c:7089:genJumpTab
                      01561 ;; ***  popGetLabel  key=13, label offset 51
0170   30??           01562         MOVLW   _00164_DS_
                      01563 ;; >>> /home/sdcc-builder/build/sdcc-build/orig/sdcc/src/pic14/gen.c:7090:genJumpTab
                      01564 ;;      1109 rIdx = r0x104F 
0171   ???? ????      01565         BANKSEL r0x1006
0173   07??           01566         ADDWF   r0x1006,W
                      01567 ;; >>> /home/sdcc-builder/build/sdcc-build/orig/sdcc/src/pic14/gen.c:7091:genJumpTab
0174   1C03           01568         BTFSS   STATUS,0
0175   2???           01569         GOTO    _00002_DS_
                      01570 ;; >>> /home/sdcc-builder/build/sdcc-build/orig/sdcc/src/pic14/gen.c:7092:genJumpTab
0176   1283 1303      01571         BANKSEL PCLATH
0178   0A8A           01572         INCF    PCLATH,F
gpasm-1.4.0 #1106 (Oct  6 2014) obj\Debug\gpi   6-23-2020  11:52:00         PAGE 31


LOC    OBJECT CODE    LINE  SOURCE TEXT
  VALUE

                      01573 ;; >>> /home/sdcc-builder/build/sdcc-build/orig/sdcc/src/pic14/gen.c:7093:genJumpTab
0179                  01574 _00002_DS_
0179   0082           01575         MOVWF   PCL
                      01576 ;; >>> /home/sdcc-builder/build/sdcc-build/orig/sdcc/src/pic14/gen.c:7102:genJumpTab
                      01577 ;; ***  popGetLabel  key=1, label offset 51
017A                  01578 _00164_DS_
017A   2???           01579         GOTO    _00152_DS_
                      01580 ;; >>> /home/sdcc-builder/build/sdcc-build/orig/sdcc/src/pic14/gen.c:7102:genJumpTab
                      01581 ;; ***  popGetLabel  key=2, label offset 51
017B   2???           01582         GOTO    _00153_DS_
                      01583 ;; >>> /home/sdcc-builder/build/sdcc-build/orig/sdcc/src/pic14/gen.c:7102:genJumpTab
                      01584 ;; ***  popGetLabel  key=3, label offset 51
017C   2???           01585         GOTO    _00154_DS_
                      01586 ;; >>> /home/sdcc-builder/build/sdcc-build/orig/sdcc/src/pic14/gen.c:7102:genJumpTab
                      01587 ;; ***  popGetLabel  key=4, label offset 51
017D   2???           01588         GOTO    _00155_DS_
                      01589 ;; >>> /home/sdcc-builder/build/sdcc-build/orig/sdcc/src/pic14/gen.c:7102:genJumpTab
                      01590 ;; ***  popGetLabel  key=5, label offset 51
017E   2???           01591         GOTO    _00156_DS_
                      01592 ;;; /home/sdcc-builder/build/sdcc-build/orig/sdcc/src/pic14/gen.c:2316:resultRemat *{*
                      01593 ;;; /home/sdcc-builder/build/sdcc-build/orig/sdcc/src/pic14/gen.c:2760:genLabel *{*
                      01594 ;; ***  genLabel  2763
                      01595 ;;; /home/sdcc-builder/build/sdcc-build/orig/sdcc/src/pic14/gen.c:2316:resultRemat *{*
                      01596 ;;; /home/sdcc-builder/build/sdcc-build/orig/sdcc/src/pic14/gen.c:5418:genGenericShift *{*
                      01597 ;; ***  genGenericShift  5421
                      01598 ;;      694 register type nRegs=1
                      01599 ;;      694 register type nRegs=1
                      01600 ;; ***  mov2w  1381  offset=0
                      01601 ;; >>> /home/sdcc-builder/build/sdcc-build/orig/sdcc/src/pic14/gen.c:1384:mov2w
017F                  01602 _00152_DS_
                      01603         .line   51; "gpio.c"    SET_REGISTER_PIN(PORTA, pin, state);
017F   3001           01604         MOVLW   0x01
                      01605 ;; >>> /home/sdcc-builder/build/sdcc-build/orig/sdcc/src/pic14/gen.c:1393:movwf
                      01606 ;;      1109 rIdx = r0x104F 
0180   ???? ????      01607         BANKSEL r0x1006
0182   00??           01608         MOVWF   r0x1006
                      01609 ;; ***  addSign  861
                      01610 ;;; /home/sdcc-builder/build/sdcc-build/orig/sdcc/src/pic14/genarith.c:862:addSign *{*
                      01611 ;; ***  mov2w  1381  offset=0
                      01612 ;; >>> /home/sdcc-builder/build/sdcc-build/orig/sdcc/src/pic14/gen.c:1386:mov2w
                      01613 ;;      1109 rIdx = r0x1050 
0183   08??           01614         MOVF    r0x1007,W
                      01615 ;; >>> /home/sdcc-builder/build/sdcc-build/orig/sdcc/src/pic14/gen.c:5492:genGenericShift
0184   3C00           01616         SUBLW   0x00
                      01617 ;; >>> /home/sdcc-builder/build/sdcc-build/orig/sdcc/src/pic14/gen.c:5494:genGenericShift
0185   1903           01618         BTFSC   STATUS,2
                      01619 ;; >>> /home/sdcc-builder/build/sdcc-build/orig/sdcc/src/pic14/gen.c:5495:genGenericShift
                      01620 ;; ***  popGetLabel  key=15, label offset 51
0186   2???           01621         GOTO    _00166_DS_
                      01622 ;;; /home/sdcc-builder/build/sdcc-build/orig/sdcc/src/pic14/gen.c:5369:genMultiAsm *{*
                      01623 ;; ***  genMultiAsm  5370
                      01624 ;; >>> /home/sdcc-builder/build/sdcc-build/orig/sdcc/src/pic14/gen.c:5387:genMultiAsm
                      01625 ;;      1109 rIdx = r0x104F 
gpasm-1.4.0 #1106 (Oct  6 2014) obj\Debug\gpi   6-23-2020  11:52:00         PAGE 32


LOC    OBJECT CODE    LINE  SOURCE TEXT
  VALUE

0187                  01626 _00165_DS_
0187   ???? ????      01627         BANKSEL r0x1006
0189   0D??           01628         RLF     r0x1006,F
                      01629 ;; >>> /home/sdcc-builder/build/sdcc-build/orig/sdcc/src/pic14/gen.c:5501:genGenericShift
018A   3E01           01630         ADDLW   0x01
                      01631 ;; >>> /home/sdcc-builder/build/sdcc-build/orig/sdcc/src/pic14/gen.c:5502:genGenericShift
018B   1C03           01632         BTFSS   STATUS,0
                      01633 ;; >>> /home/sdcc-builder/build/sdcc-build/orig/sdcc/src/pic14/gen.c:5503:genGenericShift
                      01634 ;; ***  popGetLabel  key=14, label offset 51
018C   2???           01635         GOTO    _00165_DS_
                      01636 ;;; /home/sdcc-builder/build/sdcc-build/orig/sdcc/src/pic14/gen.c:2316:resultRemat *{*
                      01637 ;;; /home/sdcc-builder/build/sdcc-build/orig/sdcc/src/pic14/gen.c:1609:genCpl *{*
                      01638 ;; ***  genCpl  1611
                      01639 ;;      694 register type nRegs=1
                      01640 ;;      694 register type nRegs=1
                      01641 ;; >>> /home/sdcc-builder/build/sdcc-build/orig/sdcc/src/pic14/gen.c:1631:genCpl
                      01642 ;;      1109 rIdx = r0x104F 
018D                  01643 _00166_DS_
018D   ???? ????      01644         BANKSEL r0x1006
018F   09??           01645         COMF    r0x1006,F
0190   ???? ????      01646         BANKSEL _PORTA
0192   08??           01647         MOVF    _PORTA,W
                      01648 ;; >>> /home/sdcc-builder/build/sdcc-build/orig/sdcc/src/pic14/gen.c:4138:genAnd
                      01649 ;;      1109 rIdx = r0x104F 
0193   ???? ????      01650         BANKSEL r0x1006
0195   05??           01651         ANDWF   r0x1006,F
                      01652 ;;; /home/sdcc-builder/build/sdcc-build/orig/sdcc/src/pic14/gen.c:2316:resultRemat *{*
                      01653 ;;; /home/sdcc-builder/build/sdcc-build/orig/sdcc/src/pic14/gen.c:5418:genGenericShift *{*
                      01654 ;; ***  genGenericShift  5421
                      01655 ;;      694 register type nRegs=1
                      01656 ;;      694 register type nRegs=1
                      01657 ;;      694 register type nRegs=1
                      01658 ;; ***  mov2w  1381  offset=0
                      01659 ;; >>> /home/sdcc-builder/build/sdcc-build/orig/sdcc/src/pic14/gen.c:1386:mov2w
                      01660 ;;      1109 rIdx = r0x1051 
0196   08??           01661         MOVF    r0x1008,W
                      01662 ;; >>> /home/sdcc-builder/build/sdcc-build/orig/sdcc/src/pic14/gen.c:1393:movwf
                      01663 ;;      1109 rIdx = r0x1052 
0197   00??           01664         MOVWF   r0x1009
                      01665 ;; ***  addSign  861
                      01666 ;;; /home/sdcc-builder/build/sdcc-build/orig/sdcc/src/pic14/genarith.c:862:addSign *{*
                      01667 ;; ***  mov2w  1381  offset=0
                      01668 ;; >>> /home/sdcc-builder/build/sdcc-build/orig/sdcc/src/pic14/gen.c:1386:mov2w
                      01669 ;;      1109 rIdx = r0x1050 
0198   08??           01670         MOVF    r0x1007,W
                      01671 ;; >>> /home/sdcc-builder/build/sdcc-build/orig/sdcc/src/pic14/gen.c:5492:genGenericShift
0199   3C00           01672         SUBLW   0x00
                      01673 ;; >>> /home/sdcc-builder/build/sdcc-build/orig/sdcc/src/pic14/gen.c:5494:genGenericShift
019A   1903           01674         BTFSC   STATUS,2
                      01675 ;; >>> /home/sdcc-builder/build/sdcc-build/orig/sdcc/src/pic14/gen.c:5495:genGenericShift
                      01676 ;; ***  popGetLabel  key=17, label offset 51
019B   2???           01677         GOTO    _00168_DS_
                      01678 ;;; /home/sdcc-builder/build/sdcc-build/orig/sdcc/src/pic14/gen.c:5369:genMultiAsm *{*
gpasm-1.4.0 #1106 (Oct  6 2014) obj\Debug\gpi   6-23-2020  11:52:00         PAGE 33


LOC    OBJECT CODE    LINE  SOURCE TEXT
  VALUE

                      01679 ;; ***  genMultiAsm  5370
                      01680 ;; >>> /home/sdcc-builder/build/sdcc-build/orig/sdcc/src/pic14/gen.c:5387:genMultiAsm
                      01681 ;;      1109 rIdx = r0x1052 
019C                  01682 _00167_DS_
019C   ???? ????      01683         BANKSEL r0x1009
019E   0D??           01684         RLF     r0x1009,F
                      01685 ;; >>> /home/sdcc-builder/build/sdcc-build/orig/sdcc/src/pic14/gen.c:5501:genGenericShift
019F   3E01           01686         ADDLW   0x01
                      01687 ;; >>> /home/sdcc-builder/build/sdcc-build/orig/sdcc/src/pic14/gen.c:5502:genGenericShift
01A0   1C03           01688         BTFSS   STATUS,0
                      01689 ;; >>> /home/sdcc-builder/build/sdcc-build/orig/sdcc/src/pic14/gen.c:5503:genGenericShift
                      01690 ;; ***  popGetLabel  key=16, label offset 51
01A1   2???           01691         GOTO    _00167_DS_
                      01692 ;;; /home/sdcc-builder/build/sdcc-build/orig/sdcc/src/pic14/gen.c:2316:resultRemat *{*
                      01693 ;;; /home/sdcc-builder/build/sdcc-build/orig/sdcc/src/pic14/gen.c:4220:genOr *{*
                      01694 ;; ***  genOr  4221
                      01695 ;;      694 register type nRegs=1
                      01696 ;;      694 register type nRegs=1
                      01697 ;; ***  aopForSym 315
                      01698 ;;      327 sym->rname = _PORTA, size = 1
                      01699 ;;      line = 4227 result AOP_DIR=_PORTA, size=1, left AOP_REG=r0x104F, size=1, right AOP_REG=r0x1052, 
                            size=1
                      01700 ;;      line = 4253 result AOP_DIR=_PORTA, size=1, left AOP_REG=r0x104F, size=1, right AOP_REG=r0x1052, 
                            size=1
                      01701 ;; >>> /home/sdcc-builder/build/sdcc-build/orig/sdcc/src/pic14/gen.c:4479:genOr
                      01702 ;;      1109 rIdx = r0x1052 
01A2                  01703 _00168_DS_
01A2   ???? ????      01704         BANKSEL r0x1009
01A4   08??           01705         MOVF    r0x1009,W
                      01706 ;; >>> /home/sdcc-builder/build/sdcc-build/orig/sdcc/src/pic14/gen.c:4480:genOr
                      01707 ;;      1109 rIdx = r0x104F 
01A5   04??           01708         IORWF   r0x1006,W
                      01709 ;; >>> /home/sdcc-builder/build/sdcc-build/orig/sdcc/src/pic14/gen.c:4481:genOr
                      01710 ;;      1009
                      01711 ;;      1028  _PORTA   offset=0
01A6   ???? ????      01712         BANKSEL _PORTA
01A8   00??           01713         MOVWF   _PORTA
                      01714 ;;; /home/sdcc-builder/build/sdcc-build/orig/sdcc/src/pic14/gen.c:2316:resultRemat *{*
                      01715 ;;; /home/sdcc-builder/build/sdcc-build/orig/sdcc/src/pic14/gen.c:2778:genGoto *{*
                      01716 ;; >>> /home/sdcc-builder/build/sdcc-build/orig/sdcc/src/pic14/gen.c:2780:genGoto
                      01717 ;; ***  popGetLabel  key=7, label offset 51
                      01718         .line   52; "gpio.c"    break;
01A9   2???           01719         GOTO    _00158_DS_
                      01720 ;;; /home/sdcc-builder/build/sdcc-build/orig/sdcc/src/pic14/gen.c:2316:resultRemat *{*
                      01721 ;;; /home/sdcc-builder/build/sdcc-build/orig/sdcc/src/pic14/gen.c:2760:genLabel *{*
                      01722 ;; ***  genLabel  2763
                      01723 ;;; /home/sdcc-builder/build/sdcc-build/orig/sdcc/src/pic14/gen.c:2316:resultRemat *{*
                      01724 ;;; /home/sdcc-builder/build/sdcc-build/orig/sdcc/src/pic14/gen.c:5418:genGenericShift *{*
                      01725 ;; ***  genGenericShift  5421
                      01726 ;;      694 register type nRegs=1
                      01727 ;;      694 register type nRegs=1
                      01728 ;; ***  mov2w  1381  offset=0
                      01729 ;; >>> /home/sdcc-builder/build/sdcc-build/orig/sdcc/src/pic14/gen.c:1384:mov2w
gpasm-1.4.0 #1106 (Oct  6 2014) obj\Debug\gpi   6-23-2020  11:52:00         PAGE 34


LOC    OBJECT CODE    LINE  SOURCE TEXT
  VALUE

01AA                  01730 _00153_DS_
                      01731         .line   54; "gpio.c"    SET_REGISTER_PIN(PORTB, pin, state);
01AA   3001           01732         MOVLW   0x01
                      01733 ;; >>> /home/sdcc-builder/build/sdcc-build/orig/sdcc/src/pic14/gen.c:1393:movwf
                      01734 ;;      1109 rIdx = r0x104F 
01AB   ???? ????      01735         BANKSEL r0x1006
01AD   00??           01736         MOVWF   r0x1006
                      01737 ;; ***  addSign  861
                      01738 ;;; /home/sdcc-builder/build/sdcc-build/orig/sdcc/src/pic14/genarith.c:862:addSign *{*
                      01739 ;; ***  mov2w  1381  offset=0
                      01740 ;; >>> /home/sdcc-builder/build/sdcc-build/orig/sdcc/src/pic14/gen.c:1386:mov2w
                      01741 ;;      1109 rIdx = r0x1050 
01AE   08??           01742         MOVF    r0x1007,W
                      01743 ;; >>> /home/sdcc-builder/build/sdcc-build/orig/sdcc/src/pic14/gen.c:5492:genGenericShift
01AF   3C00           01744         SUBLW   0x00
                      01745 ;; >>> /home/sdcc-builder/build/sdcc-build/orig/sdcc/src/pic14/gen.c:5494:genGenericShift
01B0   1903           01746         BTFSC   STATUS,2
                      01747 ;; >>> /home/sdcc-builder/build/sdcc-build/orig/sdcc/src/pic14/gen.c:5495:genGenericShift
                      01748 ;; ***  popGetLabel  key=19, label offset 51
01B1   2???           01749         GOTO    _00170_DS_
                      01750 ;;; /home/sdcc-builder/build/sdcc-build/orig/sdcc/src/pic14/gen.c:5369:genMultiAsm *{*
                      01751 ;; ***  genMultiAsm  5370
                      01752 ;; >>> /home/sdcc-builder/build/sdcc-build/orig/sdcc/src/pic14/gen.c:5387:genMultiAsm
                      01753 ;;      1109 rIdx = r0x104F 
01B2                  01754 _00169_DS_
01B2   ???? ????      01755         BANKSEL r0x1006
01B4   0D??           01756         RLF     r0x1006,F
                      01757 ;; >>> /home/sdcc-builder/build/sdcc-build/orig/sdcc/src/pic14/gen.c:5501:genGenericShift
01B5   3E01           01758         ADDLW   0x01
                      01759 ;; >>> /home/sdcc-builder/build/sdcc-build/orig/sdcc/src/pic14/gen.c:5502:genGenericShift
01B6   1C03           01760         BTFSS   STATUS,0
                      01761 ;; >>> /home/sdcc-builder/build/sdcc-build/orig/sdcc/src/pic14/gen.c:5503:genGenericShift
                      01762 ;; ***  popGetLabel  key=18, label offset 51
01B7   2???           01763         GOTO    _00169_DS_
                      01764 ;;; /home/sdcc-builder/build/sdcc-build/orig/sdcc/src/pic14/gen.c:2316:resultRemat *{*
                      01765 ;;; /home/sdcc-builder/build/sdcc-build/orig/sdcc/src/pic14/gen.c:1609:genCpl *{*
                      01766 ;; ***  genCpl  1611
                      01767 ;;      694 register type nRegs=1
                      01768 ;;      694 register type nRegs=1
                      01769 ;; >>> /home/sdcc-builder/build/sdcc-build/orig/sdcc/src/pic14/gen.c:1631:genCpl
                      01770 ;;      1109 rIdx = r0x104F 
01B8                  01771 _00170_DS_
01B8   ???? ????      01772         BANKSEL r0x1006
01BA   09??           01773         COMF    r0x1006,F
01BB   ???? ????      01774         BANKSEL _PORTB
01BD   08??           01775         MOVF    _PORTB,W
                      01776 ;; >>> /home/sdcc-builder/build/sdcc-build/orig/sdcc/src/pic14/gen.c:4138:genAnd
                      01777 ;;      1109 rIdx = r0x104F 
01BE   ???? ????      01778         BANKSEL r0x1006
01C0   05??           01779         ANDWF   r0x1006,F
                      01780 ;;; /home/sdcc-builder/build/sdcc-build/orig/sdcc/src/pic14/gen.c:2316:resultRemat *{*
                      01781 ;;; /home/sdcc-builder/build/sdcc-build/orig/sdcc/src/pic14/gen.c:5418:genGenericShift *{*
                      01782 ;; ***  genGenericShift  5421
gpasm-1.4.0 #1106 (Oct  6 2014) obj\Debug\gpi   6-23-2020  11:52:00         PAGE 35


LOC    OBJECT CODE    LINE  SOURCE TEXT
  VALUE

                      01783 ;;      694 register type nRegs=1
                      01784 ;;      694 register type nRegs=1
                      01785 ;;      694 register type nRegs=1
                      01786 ;; ***  mov2w  1381  offset=0
                      01787 ;; >>> /home/sdcc-builder/build/sdcc-build/orig/sdcc/src/pic14/gen.c:1386:mov2w
                      01788 ;;      1109 rIdx = r0x1051 
01C1   08??           01789         MOVF    r0x1008,W
                      01790 ;; >>> /home/sdcc-builder/build/sdcc-build/orig/sdcc/src/pic14/gen.c:1393:movwf
                      01791 ;;      1109 rIdx = r0x1052 
01C2   00??           01792         MOVWF   r0x1009
                      01793 ;; ***  addSign  861
                      01794 ;;; /home/sdcc-builder/build/sdcc-build/orig/sdcc/src/pic14/genarith.c:862:addSign *{*
                      01795 ;; ***  mov2w  1381  offset=0
                      01796 ;; >>> /home/sdcc-builder/build/sdcc-build/orig/sdcc/src/pic14/gen.c:1386:mov2w
                      01797 ;;      1109 rIdx = r0x1050 
01C3   08??           01798         MOVF    r0x1007,W
                      01799 ;; >>> /home/sdcc-builder/build/sdcc-build/orig/sdcc/src/pic14/gen.c:5492:genGenericShift
01C4   3C00           01800         SUBLW   0x00
                      01801 ;; >>> /home/sdcc-builder/build/sdcc-build/orig/sdcc/src/pic14/gen.c:5494:genGenericShift
01C5   1903           01802         BTFSC   STATUS,2
                      01803 ;; >>> /home/sdcc-builder/build/sdcc-build/orig/sdcc/src/pic14/gen.c:5495:genGenericShift
                      01804 ;; ***  popGetLabel  key=21, label offset 51
01C6   2???           01805         GOTO    _00172_DS_
                      01806 ;;; /home/sdcc-builder/build/sdcc-build/orig/sdcc/src/pic14/gen.c:5369:genMultiAsm *{*
                      01807 ;; ***  genMultiAsm  5370
                      01808 ;; >>> /home/sdcc-builder/build/sdcc-build/orig/sdcc/src/pic14/gen.c:5387:genMultiAsm
                      01809 ;;      1109 rIdx = r0x1052 
01C7                  01810 _00171_DS_
01C7   ???? ????      01811         BANKSEL r0x1009
01C9   0D??           01812         RLF     r0x1009,F
                      01813 ;; >>> /home/sdcc-builder/build/sdcc-build/orig/sdcc/src/pic14/gen.c:5501:genGenericShift
01CA   3E01           01814         ADDLW   0x01
                      01815 ;; >>> /home/sdcc-builder/build/sdcc-build/orig/sdcc/src/pic14/gen.c:5502:genGenericShift
01CB   1C03           01816         BTFSS   STATUS,0
                      01817 ;; >>> /home/sdcc-builder/build/sdcc-build/orig/sdcc/src/pic14/gen.c:5503:genGenericShift
                      01818 ;; ***  popGetLabel  key=20, label offset 51
01CC   2???           01819         GOTO    _00171_DS_
                      01820 ;;; /home/sdcc-builder/build/sdcc-build/orig/sdcc/src/pic14/gen.c:2316:resultRemat *{*
                      01821 ;;; /home/sdcc-builder/build/sdcc-build/orig/sdcc/src/pic14/gen.c:4220:genOr *{*
                      01822 ;; ***  genOr  4221
                      01823 ;;      694 register type nRegs=1
                      01824 ;;      694 register type nRegs=1
                      01825 ;; ***  aopForSym 315
                      01826 ;;      327 sym->rname = _PORTB, size = 1
                      01827 ;;      line = 4227 result AOP_DIR=_PORTB, size=1, left AOP_REG=r0x104F, size=1, right AOP_REG=r0x1052, 
                            size=1
                      01828 ;;      line = 4253 result AOP_DIR=_PORTB, size=1, left AOP_REG=r0x104F, size=1, right AOP_REG=r0x1052, 
                            size=1
                      01829 ;; >>> /home/sdcc-builder/build/sdcc-build/orig/sdcc/src/pic14/gen.c:4479:genOr
                      01830 ;;      1109 rIdx = r0x1052 
01CD                  01831 _00172_DS_
01CD   ???? ????      01832         BANKSEL r0x1009
01CF   08??           01833         MOVF    r0x1009,W
gpasm-1.4.0 #1106 (Oct  6 2014) obj\Debug\gpi   6-23-2020  11:52:00         PAGE 36


LOC    OBJECT CODE    LINE  SOURCE TEXT
  VALUE

                      01834 ;; >>> /home/sdcc-builder/build/sdcc-build/orig/sdcc/src/pic14/gen.c:4480:genOr
                      01835 ;;      1109 rIdx = r0x104F 
01D0   04??           01836         IORWF   r0x1006,W
                      01837 ;; >>> /home/sdcc-builder/build/sdcc-build/orig/sdcc/src/pic14/gen.c:4481:genOr
                      01838 ;;      1009
                      01839 ;;      1028  _PORTB   offset=0
01D1   ???? ????      01840         BANKSEL _PORTB
01D3   00??           01841         MOVWF   _PORTB
                      01842 ;;; /home/sdcc-builder/build/sdcc-build/orig/sdcc/src/pic14/gen.c:2316:resultRemat *{*
                      01843 ;;; /home/sdcc-builder/build/sdcc-build/orig/sdcc/src/pic14/gen.c:2778:genGoto *{*
                      01844 ;; >>> /home/sdcc-builder/build/sdcc-build/orig/sdcc/src/pic14/gen.c:2780:genGoto
                      01845 ;; ***  popGetLabel  key=7, label offset 51
                      01846         .line   55; "gpio.c"    break;
01D4   2???           01847         GOTO    _00158_DS_
                      01848 ;;; /home/sdcc-builder/build/sdcc-build/orig/sdcc/src/pic14/gen.c:2316:resultRemat *{*
                      01849 ;;; /home/sdcc-builder/build/sdcc-build/orig/sdcc/src/pic14/gen.c:2760:genLabel *{*
                      01850 ;; ***  genLabel  2763
                      01851 ;;; /home/sdcc-builder/build/sdcc-build/orig/sdcc/src/pic14/gen.c:2316:resultRemat *{*
                      01852 ;;; /home/sdcc-builder/build/sdcc-build/orig/sdcc/src/pic14/gen.c:5418:genGenericShift *{*
                      01853 ;; ***  genGenericShift  5421
                      01854 ;;      694 register type nRegs=1
                      01855 ;;      694 register type nRegs=1
                      01856 ;; ***  mov2w  1381  offset=0
                      01857 ;; >>> /home/sdcc-builder/build/sdcc-build/orig/sdcc/src/pic14/gen.c:1384:mov2w
01D5                  01858 _00154_DS_
                      01859         .line   57; "gpio.c"    SET_REGISTER_PIN(PORTC, pin, state);
01D5   3001           01860         MOVLW   0x01
                      01861 ;; >>> /home/sdcc-builder/build/sdcc-build/orig/sdcc/src/pic14/gen.c:1393:movwf
                      01862 ;;      1109 rIdx = r0x104F 
01D6   ???? ????      01863         BANKSEL r0x1006
01D8   00??           01864         MOVWF   r0x1006
                      01865 ;; ***  addSign  861
                      01866 ;;; /home/sdcc-builder/build/sdcc-build/orig/sdcc/src/pic14/genarith.c:862:addSign *{*
                      01867 ;; ***  mov2w  1381  offset=0
                      01868 ;; >>> /home/sdcc-builder/build/sdcc-build/orig/sdcc/src/pic14/gen.c:1386:mov2w
                      01869 ;;      1109 rIdx = r0x1050 
01D9   08??           01870         MOVF    r0x1007,W
                      01871 ;; >>> /home/sdcc-builder/build/sdcc-build/orig/sdcc/src/pic14/gen.c:5492:genGenericShift
01DA   3C00           01872         SUBLW   0x00
                      01873 ;; >>> /home/sdcc-builder/build/sdcc-build/orig/sdcc/src/pic14/gen.c:5494:genGenericShift
01DB   1903           01874         BTFSC   STATUS,2
                      01875 ;; >>> /home/sdcc-builder/build/sdcc-build/orig/sdcc/src/pic14/gen.c:5495:genGenericShift
                      01876 ;; ***  popGetLabel  key=23, label offset 51
01DC   2???           01877         GOTO    _00174_DS_
                      01878 ;;; /home/sdcc-builder/build/sdcc-build/orig/sdcc/src/pic14/gen.c:5369:genMultiAsm *{*
                      01879 ;; ***  genMultiAsm  5370
                      01880 ;; >>> /home/sdcc-builder/build/sdcc-build/orig/sdcc/src/pic14/gen.c:5387:genMultiAsm
                      01881 ;;      1109 rIdx = r0x104F 
01DD                  01882 _00173_DS_
01DD   ???? ????      01883         BANKSEL r0x1006
01DF   0D??           01884         RLF     r0x1006,F
                      01885 ;; >>> /home/sdcc-builder/build/sdcc-build/orig/sdcc/src/pic14/gen.c:5501:genGenericShift
01E0   3E01           01886         ADDLW   0x01
gpasm-1.4.0 #1106 (Oct  6 2014) obj\Debug\gpi   6-23-2020  11:52:00         PAGE 37


LOC    OBJECT CODE    LINE  SOURCE TEXT
  VALUE

                      01887 ;; >>> /home/sdcc-builder/build/sdcc-build/orig/sdcc/src/pic14/gen.c:5502:genGenericShift
01E1   1C03           01888         BTFSS   STATUS,0
                      01889 ;; >>> /home/sdcc-builder/build/sdcc-build/orig/sdcc/src/pic14/gen.c:5503:genGenericShift
                      01890 ;; ***  popGetLabel  key=22, label offset 51
01E2   2???           01891         GOTO    _00173_DS_
                      01892 ;;; /home/sdcc-builder/build/sdcc-build/orig/sdcc/src/pic14/gen.c:2316:resultRemat *{*
                      01893 ;;; /home/sdcc-builder/build/sdcc-build/orig/sdcc/src/pic14/gen.c:1609:genCpl *{*
                      01894 ;; ***  genCpl  1611
                      01895 ;;      694 register type nRegs=1
                      01896 ;;      694 register type nRegs=1
                      01897 ;; >>> /home/sdcc-builder/build/sdcc-build/orig/sdcc/src/pic14/gen.c:1631:genCpl
                      01898 ;;      1109 rIdx = r0x104F 
01E3                  01899 _00174_DS_
01E3   ???? ????      01900         BANKSEL r0x1006
01E5   09??           01901         COMF    r0x1006,F
01E6   ???? ????      01902         BANKSEL _PORTC
01E8   08??           01903         MOVF    _PORTC,W
                      01904 ;; >>> /home/sdcc-builder/build/sdcc-build/orig/sdcc/src/pic14/gen.c:4138:genAnd
                      01905 ;;      1109 rIdx = r0x104F 
01E9   ???? ????      01906         BANKSEL r0x1006
01EB   05??           01907         ANDWF   r0x1006,F
                      01908 ;;; /home/sdcc-builder/build/sdcc-build/orig/sdcc/src/pic14/gen.c:2316:resultRemat *{*
                      01909 ;;; /home/sdcc-builder/build/sdcc-build/orig/sdcc/src/pic14/gen.c:5418:genGenericShift *{*
                      01910 ;; ***  genGenericShift  5421
                      01911 ;;      694 register type nRegs=1
                      01912 ;;      694 register type nRegs=1
                      01913 ;;      694 register type nRegs=1
                      01914 ;; ***  mov2w  1381  offset=0
                      01915 ;; >>> /home/sdcc-builder/build/sdcc-build/orig/sdcc/src/pic14/gen.c:1386:mov2w
                      01916 ;;      1109 rIdx = r0x1051 
01EC   08??           01917         MOVF    r0x1008,W
                      01918 ;; >>> /home/sdcc-builder/build/sdcc-build/orig/sdcc/src/pic14/gen.c:1393:movwf
                      01919 ;;      1109 rIdx = r0x1052 
01ED   00??           01920         MOVWF   r0x1009
                      01921 ;; ***  addSign  861
                      01922 ;;; /home/sdcc-builder/build/sdcc-build/orig/sdcc/src/pic14/genarith.c:862:addSign *{*
                      01923 ;; ***  mov2w  1381  offset=0
                      01924 ;; >>> /home/sdcc-builder/build/sdcc-build/orig/sdcc/src/pic14/gen.c:1386:mov2w
                      01925 ;;      1109 rIdx = r0x1050 
01EE   08??           01926         MOVF    r0x1007,W
                      01927 ;; >>> /home/sdcc-builder/build/sdcc-build/orig/sdcc/src/pic14/gen.c:5492:genGenericShift
01EF   3C00           01928         SUBLW   0x00
                      01929 ;; >>> /home/sdcc-builder/build/sdcc-build/orig/sdcc/src/pic14/gen.c:5494:genGenericShift
01F0   1903           01930         BTFSC   STATUS,2
                      01931 ;; >>> /home/sdcc-builder/build/sdcc-build/orig/sdcc/src/pic14/gen.c:5495:genGenericShift
                      01932 ;; ***  popGetLabel  key=25, label offset 51
01F1   2???           01933         GOTO    _00176_DS_
                      01934 ;;; /home/sdcc-builder/build/sdcc-build/orig/sdcc/src/pic14/gen.c:5369:genMultiAsm *{*
                      01935 ;; ***  genMultiAsm  5370
                      01936 ;; >>> /home/sdcc-builder/build/sdcc-build/orig/sdcc/src/pic14/gen.c:5387:genMultiAsm
                      01937 ;;      1109 rIdx = r0x1052 
01F2                  01938 _00175_DS_
01F2   ???? ????      01939         BANKSEL r0x1009
gpasm-1.4.0 #1106 (Oct  6 2014) obj\Debug\gpi   6-23-2020  11:52:00         PAGE 38


LOC    OBJECT CODE    LINE  SOURCE TEXT
  VALUE

01F4   0D??           01940         RLF     r0x1009,F
                      01941 ;; >>> /home/sdcc-builder/build/sdcc-build/orig/sdcc/src/pic14/gen.c:5501:genGenericShift
01F5   3E01           01942         ADDLW   0x01
                      01943 ;; >>> /home/sdcc-builder/build/sdcc-build/orig/sdcc/src/pic14/gen.c:5502:genGenericShift
01F6   1C03           01944         BTFSS   STATUS,0
                      01945 ;; >>> /home/sdcc-builder/build/sdcc-build/orig/sdcc/src/pic14/gen.c:5503:genGenericShift
                      01946 ;; ***  popGetLabel  key=24, label offset 51
01F7   2???           01947         GOTO    _00175_DS_
                      01948 ;;; /home/sdcc-builder/build/sdcc-build/orig/sdcc/src/pic14/gen.c:2316:resultRemat *{*
                      01949 ;;; /home/sdcc-builder/build/sdcc-build/orig/sdcc/src/pic14/gen.c:4220:genOr *{*
                      01950 ;; ***  genOr  4221
                      01951 ;;      694 register type nRegs=1
                      01952 ;;      694 register type nRegs=1
                      01953 ;; ***  aopForSym 315
                      01954 ;;      327 sym->rname = _PORTC, size = 1
                      01955 ;;      line = 4227 result AOP_DIR=_PORTC, size=1, left AOP_REG=r0x104F, size=1, right AOP_REG=r0x1052, 
                            size=1
                      01956 ;;      line = 4253 result AOP_DIR=_PORTC, size=1, left AOP_REG=r0x104F, size=1, right AOP_REG=r0x1052, 
                            size=1
                      01957 ;; >>> /home/sdcc-builder/build/sdcc-build/orig/sdcc/src/pic14/gen.c:4479:genOr
                      01958 ;;      1109 rIdx = r0x1052 
01F8                  01959 _00176_DS_
01F8   ???? ????      01960         BANKSEL r0x1009
01FA   08??           01961         MOVF    r0x1009,W
                      01962 ;; >>> /home/sdcc-builder/build/sdcc-build/orig/sdcc/src/pic14/gen.c:4480:genOr
                      01963 ;;      1109 rIdx = r0x104F 
01FB   04??           01964         IORWF   r0x1006,W
                      01965 ;; >>> /home/sdcc-builder/build/sdcc-build/orig/sdcc/src/pic14/gen.c:4481:genOr
                      01966 ;;      1009
                      01967 ;;      1028  _PORTC   offset=0
01FC   ???? ????      01968         BANKSEL _PORTC
01FE   00??           01969         MOVWF   _PORTC
                      01970 ;;; /home/sdcc-builder/build/sdcc-build/orig/sdcc/src/pic14/gen.c:2316:resultRemat *{*
                      01971 ;;; /home/sdcc-builder/build/sdcc-build/orig/sdcc/src/pic14/gen.c:2778:genGoto *{*
                      01972 ;; >>> /home/sdcc-builder/build/sdcc-build/orig/sdcc/src/pic14/gen.c:2780:genGoto
                      01973 ;; ***  popGetLabel  key=7, label offset 51
                      01974         .line   58; "gpio.c"    break;
01FF   2???           01975         GOTO    _00158_DS_
                      01976 ;;; /home/sdcc-builder/build/sdcc-build/orig/sdcc/src/pic14/gen.c:2316:resultRemat *{*
                      01977 ;;; /home/sdcc-builder/build/sdcc-build/orig/sdcc/src/pic14/gen.c:2760:genLabel *{*
                      01978 ;; ***  genLabel  2763
                      01979 ;;; /home/sdcc-builder/build/sdcc-build/orig/sdcc/src/pic14/gen.c:2316:resultRemat *{*
                      01980 ;;; /home/sdcc-builder/build/sdcc-build/orig/sdcc/src/pic14/gen.c:5418:genGenericShift *{*
                      01981 ;; ***  genGenericShift  5421
                      01982 ;;      694 register type nRegs=1
                      01983 ;;      694 register type nRegs=1
                      01984 ;; ***  mov2w  1381  offset=0
                      01985 ;; >>> /home/sdcc-builder/build/sdcc-build/orig/sdcc/src/pic14/gen.c:1384:mov2w
0200                  01986 _00155_DS_
                      01987         .line   60; "gpio.c"    SET_REGISTER_PIN(PORTD, pin, state);
0200   3001           01988         MOVLW   0x01
                      01989 ;; >>> /home/sdcc-builder/build/sdcc-build/orig/sdcc/src/pic14/gen.c:1393:movwf
                      01990 ;;      1109 rIdx = r0x104F 
gpasm-1.4.0 #1106 (Oct  6 2014) obj\Debug\gpi   6-23-2020  11:52:00         PAGE 39


LOC    OBJECT CODE    LINE  SOURCE TEXT
  VALUE

0201   ???? ????      01991         BANKSEL r0x1006
0203   00??           01992         MOVWF   r0x1006
                      01993 ;; ***  addSign  861
                      01994 ;;; /home/sdcc-builder/build/sdcc-build/orig/sdcc/src/pic14/genarith.c:862:addSign *{*
                      01995 ;; ***  mov2w  1381  offset=0
                      01996 ;; >>> /home/sdcc-builder/build/sdcc-build/orig/sdcc/src/pic14/gen.c:1386:mov2w
                      01997 ;;      1109 rIdx = r0x1050 
0204   08??           01998         MOVF    r0x1007,W
                      01999 ;; >>> /home/sdcc-builder/build/sdcc-build/orig/sdcc/src/pic14/gen.c:5492:genGenericShift
0205   3C00           02000         SUBLW   0x00
                      02001 ;; >>> /home/sdcc-builder/build/sdcc-build/orig/sdcc/src/pic14/gen.c:5494:genGenericShift
0206   1903           02002         BTFSC   STATUS,2
                      02003 ;; >>> /home/sdcc-builder/build/sdcc-build/orig/sdcc/src/pic14/gen.c:5495:genGenericShift
                      02004 ;; ***  popGetLabel  key=27, label offset 51
0207   2???           02005         GOTO    _00178_DS_
                      02006 ;;; /home/sdcc-builder/build/sdcc-build/orig/sdcc/src/pic14/gen.c:5369:genMultiAsm *{*
                      02007 ;; ***  genMultiAsm  5370
                      02008 ;; >>> /home/sdcc-builder/build/sdcc-build/orig/sdcc/src/pic14/gen.c:5387:genMultiAsm
                      02009 ;;      1109 rIdx = r0x104F 
0208                  02010 _00177_DS_
0208   ???? ????      02011         BANKSEL r0x1006
020A   0D??           02012         RLF     r0x1006,F
                      02013 ;; >>> /home/sdcc-builder/build/sdcc-build/orig/sdcc/src/pic14/gen.c:5501:genGenericShift
020B   3E01           02014         ADDLW   0x01
                      02015 ;; >>> /home/sdcc-builder/build/sdcc-build/orig/sdcc/src/pic14/gen.c:5502:genGenericShift
020C   1C03           02016         BTFSS   STATUS,0
                      02017 ;; >>> /home/sdcc-builder/build/sdcc-build/orig/sdcc/src/pic14/gen.c:5503:genGenericShift
                      02018 ;; ***  popGetLabel  key=26, label offset 51
020D   2???           02019         GOTO    _00177_DS_
                      02020 ;;; /home/sdcc-builder/build/sdcc-build/orig/sdcc/src/pic14/gen.c:2316:resultRemat *{*
                      02021 ;;; /home/sdcc-builder/build/sdcc-build/orig/sdcc/src/pic14/gen.c:1609:genCpl *{*
                      02022 ;; ***  genCpl  1611
                      02023 ;;      694 register type nRegs=1
                      02024 ;;      694 register type nRegs=1
                      02025 ;; >>> /home/sdcc-builder/build/sdcc-build/orig/sdcc/src/pic14/gen.c:1631:genCpl
                      02026 ;;      1109 rIdx = r0x104F 
020E                  02027 _00178_DS_
020E   ???? ????      02028         BANKSEL r0x1006
0210   09??           02029         COMF    r0x1006,F
0211   ???? ????      02030         BANKSEL _PORTD
0213   08??           02031         MOVF    _PORTD,W
                      02032 ;; >>> /home/sdcc-builder/build/sdcc-build/orig/sdcc/src/pic14/gen.c:4138:genAnd
                      02033 ;;      1109 rIdx = r0x104F 
0214   ???? ????      02034         BANKSEL r0x1006
0216   05??           02035         ANDWF   r0x1006,F
                      02036 ;;; /home/sdcc-builder/build/sdcc-build/orig/sdcc/src/pic14/gen.c:2316:resultRemat *{*
                      02037 ;;; /home/sdcc-builder/build/sdcc-build/orig/sdcc/src/pic14/gen.c:5418:genGenericShift *{*
                      02038 ;; ***  genGenericShift  5421
                      02039 ;;      694 register type nRegs=1
                      02040 ;;      694 register type nRegs=1
                      02041 ;;      694 register type nRegs=1
                      02042 ;; ***  mov2w  1381  offset=0
                      02043 ;; >>> /home/sdcc-builder/build/sdcc-build/orig/sdcc/src/pic14/gen.c:1386:mov2w
gpasm-1.4.0 #1106 (Oct  6 2014) obj\Debug\gpi   6-23-2020  11:52:00         PAGE 40


LOC    OBJECT CODE    LINE  SOURCE TEXT
  VALUE

                      02044 ;;      1109 rIdx = r0x1051 
0217   08??           02045         MOVF    r0x1008,W
                      02046 ;; >>> /home/sdcc-builder/build/sdcc-build/orig/sdcc/src/pic14/gen.c:1393:movwf
                      02047 ;;      1109 rIdx = r0x1052 
0218   00??           02048         MOVWF   r0x1009
                      02049 ;; ***  addSign  861
                      02050 ;;; /home/sdcc-builder/build/sdcc-build/orig/sdcc/src/pic14/genarith.c:862:addSign *{*
                      02051 ;; ***  mov2w  1381  offset=0
                      02052 ;; >>> /home/sdcc-builder/build/sdcc-build/orig/sdcc/src/pic14/gen.c:1386:mov2w
                      02053 ;;      1109 rIdx = r0x1050 
0219   08??           02054         MOVF    r0x1007,W
                      02055 ;; >>> /home/sdcc-builder/build/sdcc-build/orig/sdcc/src/pic14/gen.c:5492:genGenericShift
021A   3C00           02056         SUBLW   0x00
                      02057 ;; >>> /home/sdcc-builder/build/sdcc-build/orig/sdcc/src/pic14/gen.c:5494:genGenericShift
021B   1903           02058         BTFSC   STATUS,2
                      02059 ;; >>> /home/sdcc-builder/build/sdcc-build/orig/sdcc/src/pic14/gen.c:5495:genGenericShift
                      02060 ;; ***  popGetLabel  key=29, label offset 51
021C   2???           02061         GOTO    _00180_DS_
                      02062 ;;; /home/sdcc-builder/build/sdcc-build/orig/sdcc/src/pic14/gen.c:5369:genMultiAsm *{*
                      02063 ;; ***  genMultiAsm  5370
                      02064 ;; >>> /home/sdcc-builder/build/sdcc-build/orig/sdcc/src/pic14/gen.c:5387:genMultiAsm
                      02065 ;;      1109 rIdx = r0x1052 
021D                  02066 _00179_DS_
021D   ???? ????      02067         BANKSEL r0x1009
021F   0D??           02068         RLF     r0x1009,F
                      02069 ;; >>> /home/sdcc-builder/build/sdcc-build/orig/sdcc/src/pic14/gen.c:5501:genGenericShift
0220   3E01           02070         ADDLW   0x01
                      02071 ;; >>> /home/sdcc-builder/build/sdcc-build/orig/sdcc/src/pic14/gen.c:5502:genGenericShift
0221   1C03           02072         BTFSS   STATUS,0
                      02073 ;; >>> /home/sdcc-builder/build/sdcc-build/orig/sdcc/src/pic14/gen.c:5503:genGenericShift
                      02074 ;; ***  popGetLabel  key=28, label offset 51
0222   2???           02075         GOTO    _00179_DS_
                      02076 ;;; /home/sdcc-builder/build/sdcc-build/orig/sdcc/src/pic14/gen.c:2316:resultRemat *{*
                      02077 ;;; /home/sdcc-builder/build/sdcc-build/orig/sdcc/src/pic14/gen.c:4220:genOr *{*
                      02078 ;; ***  genOr  4221
                      02079 ;;      694 register type nRegs=1
                      02080 ;;      694 register type nRegs=1
                      02081 ;; ***  aopForSym 315
                      02082 ;;      327 sym->rname = _PORTD, size = 1
                      02083 ;;      line = 4227 result AOP_DIR=_PORTD, size=1, left AOP_REG=r0x104F, size=1, right AOP_REG=r0x1052, 
                            size=1
                      02084 ;;      line = 4253 result AOP_DIR=_PORTD, size=1, left AOP_REG=r0x104F, size=1, right AOP_REG=r0x1052, 
                            size=1
                      02085 ;; >>> /home/sdcc-builder/build/sdcc-build/orig/sdcc/src/pic14/gen.c:4479:genOr
                      02086 ;;      1109 rIdx = r0x1052 
0223                  02087 _00180_DS_
0223   ???? ????      02088         BANKSEL r0x1009
0225   08??           02089         MOVF    r0x1009,W
                      02090 ;; >>> /home/sdcc-builder/build/sdcc-build/orig/sdcc/src/pic14/gen.c:4480:genOr
                      02091 ;;      1109 rIdx = r0x104F 
0226   04??           02092         IORWF   r0x1006,W
                      02093 ;; >>> /home/sdcc-builder/build/sdcc-build/orig/sdcc/src/pic14/gen.c:4481:genOr
                      02094 ;;      1009
gpasm-1.4.0 #1106 (Oct  6 2014) obj\Debug\gpi   6-23-2020  11:52:00         PAGE 41


LOC    OBJECT CODE    LINE  SOURCE TEXT
  VALUE

                      02095 ;;      1028  _PORTD   offset=0
0227   ???? ????      02096         BANKSEL _PORTD
0229   00??           02097         MOVWF   _PORTD
                      02098 ;;; /home/sdcc-builder/build/sdcc-build/orig/sdcc/src/pic14/gen.c:2316:resultRemat *{*
                      02099 ;;; /home/sdcc-builder/build/sdcc-build/orig/sdcc/src/pic14/gen.c:2778:genGoto *{*
                      02100 ;; >>> /home/sdcc-builder/build/sdcc-build/orig/sdcc/src/pic14/gen.c:2780:genGoto
                      02101 ;; ***  popGetLabel  key=7, label offset 51
                      02102         .line   61; "gpio.c"    break;
022A   2???           02103         GOTO    _00158_DS_
                      02104 ;;; /home/sdcc-builder/build/sdcc-build/orig/sdcc/src/pic14/gen.c:2316:resultRemat *{*
                      02105 ;;; /home/sdcc-builder/build/sdcc-build/orig/sdcc/src/pic14/gen.c:2760:genLabel *{*
                      02106 ;; ***  genLabel  2763
                      02107 ;;; /home/sdcc-builder/build/sdcc-build/orig/sdcc/src/pic14/gen.c:2316:resultRemat *{*
                      02108 ;;; /home/sdcc-builder/build/sdcc-build/orig/sdcc/src/pic14/gen.c:5418:genGenericShift *{*
                      02109 ;; ***  genGenericShift  5421
                      02110 ;;      694 register type nRegs=1
                      02111 ;;      694 register type nRegs=1
                      02112 ;; ***  mov2w  1381  offset=0
                      02113 ;; >>> /home/sdcc-builder/build/sdcc-build/orig/sdcc/src/pic14/gen.c:1384:mov2w
022B                  02114 _00156_DS_
                      02115         .line   63; "gpio.c"    SET_REGISTER_PIN(PORTE, pin, state);
022B   3001           02116         MOVLW   0x01
                      02117 ;; >>> /home/sdcc-builder/build/sdcc-build/orig/sdcc/src/pic14/gen.c:1393:movwf
                      02118 ;;      1109 rIdx = r0x104F 
022C   ???? ????      02119         BANKSEL r0x1006
022E   00??           02120         MOVWF   r0x1006
                      02121 ;; ***  addSign  861
                      02122 ;;; /home/sdcc-builder/build/sdcc-build/orig/sdcc/src/pic14/genarith.c:862:addSign *{*
                      02123 ;; ***  mov2w  1381  offset=0
                      02124 ;; >>> /home/sdcc-builder/build/sdcc-build/orig/sdcc/src/pic14/gen.c:1386:mov2w
                      02125 ;;      1109 rIdx = r0x1050 
022F   08??           02126         MOVF    r0x1007,W
                      02127 ;; >>> /home/sdcc-builder/build/sdcc-build/orig/sdcc/src/pic14/gen.c:5492:genGenericShift
0230   3C00           02128         SUBLW   0x00
                      02129 ;; >>> /home/sdcc-builder/build/sdcc-build/orig/sdcc/src/pic14/gen.c:5494:genGenericShift
0231   1903           02130         BTFSC   STATUS,2
                      02131 ;; >>> /home/sdcc-builder/build/sdcc-build/orig/sdcc/src/pic14/gen.c:5495:genGenericShift
                      02132 ;; ***  popGetLabel  key=31, label offset 51
0232   2???           02133         GOTO    _00182_DS_
                      02134 ;;; /home/sdcc-builder/build/sdcc-build/orig/sdcc/src/pic14/gen.c:5369:genMultiAsm *{*
                      02135 ;; ***  genMultiAsm  5370
                      02136 ;; >>> /home/sdcc-builder/build/sdcc-build/orig/sdcc/src/pic14/gen.c:5387:genMultiAsm
                      02137 ;;      1109 rIdx = r0x104F 
0233                  02138 _00181_DS_
0233   ???? ????      02139         BANKSEL r0x1006
0235   0D??           02140         RLF     r0x1006,F
                      02141 ;; >>> /home/sdcc-builder/build/sdcc-build/orig/sdcc/src/pic14/gen.c:5501:genGenericShift
0236   3E01           02142         ADDLW   0x01
                      02143 ;; >>> /home/sdcc-builder/build/sdcc-build/orig/sdcc/src/pic14/gen.c:5502:genGenericShift
0237   1C03           02144         BTFSS   STATUS,0
                      02145 ;; >>> /home/sdcc-builder/build/sdcc-build/orig/sdcc/src/pic14/gen.c:5503:genGenericShift
                      02146 ;; ***  popGetLabel  key=30, label offset 51
0238   2???           02147         GOTO    _00181_DS_
gpasm-1.4.0 #1106 (Oct  6 2014) obj\Debug\gpi   6-23-2020  11:52:00         PAGE 42


LOC    OBJECT CODE    LINE  SOURCE TEXT
  VALUE

                      02148 ;;; /home/sdcc-builder/build/sdcc-build/orig/sdcc/src/pic14/gen.c:2316:resultRemat *{*
                      02149 ;;; /home/sdcc-builder/build/sdcc-build/orig/sdcc/src/pic14/gen.c:1609:genCpl *{*
                      02150 ;; ***  genCpl  1611
                      02151 ;;      694 register type nRegs=1
                      02152 ;;      694 register type nRegs=1
                      02153 ;; >>> /home/sdcc-builder/build/sdcc-build/orig/sdcc/src/pic14/gen.c:1631:genCpl
                      02154 ;;      1109 rIdx = r0x104F 
0239                  02155 _00182_DS_
0239   ???? ????      02156         BANKSEL r0x1006
023B   09??           02157         COMF    r0x1006,F
023C   ???? ????      02158         BANKSEL _PORTE
023E   08??           02159         MOVF    _PORTE,W
                      02160 ;; >>> /home/sdcc-builder/build/sdcc-build/orig/sdcc/src/pic14/gen.c:4138:genAnd
                      02161 ;;      1109 rIdx = r0x104F 
023F   ???? ????      02162         BANKSEL r0x1006
0241   05??           02163         ANDWF   r0x1006,F
                      02164 ;;; /home/sdcc-builder/build/sdcc-build/orig/sdcc/src/pic14/gen.c:2316:resultRemat *{*
                      02165 ;;; /home/sdcc-builder/build/sdcc-build/orig/sdcc/src/pic14/gen.c:5418:genGenericShift *{*
                      02166 ;; ***  genGenericShift  5421
                      02167 ;;      694 register type nRegs=1
                      02168 ;;      694 register type nRegs=1
                      02169 ;;      694 register type nRegs=1
                      02170 ;; ***  mov2w  1381  offset=0
                      02171 ;; >>> /home/sdcc-builder/build/sdcc-build/orig/sdcc/src/pic14/gen.c:1386:mov2w
                      02172 ;;      1109 rIdx = r0x1051 
0242   08??           02173         MOVF    r0x1008,W
                      02174 ;; >>> /home/sdcc-builder/build/sdcc-build/orig/sdcc/src/pic14/gen.c:1393:movwf
                      02175 ;;      1109 rIdx = r0x1052 
0243   00??           02176         MOVWF   r0x1009
                      02177 ;; ***  addSign  861
                      02178 ;;; /home/sdcc-builder/build/sdcc-build/orig/sdcc/src/pic14/genarith.c:862:addSign *{*
                      02179 ;; ***  mov2w  1381  offset=0
                      02180 ;; >>> /home/sdcc-builder/build/sdcc-build/orig/sdcc/src/pic14/gen.c:1386:mov2w
                      02181 ;;      1109 rIdx = r0x1050 
0244   08??           02182         MOVF    r0x1007,W
                      02183 ;; >>> /home/sdcc-builder/build/sdcc-build/orig/sdcc/src/pic14/gen.c:5492:genGenericShift
0245   3C00           02184         SUBLW   0x00
                      02185 ;; >>> /home/sdcc-builder/build/sdcc-build/orig/sdcc/src/pic14/gen.c:5494:genGenericShift
0246   1903           02186         BTFSC   STATUS,2
                      02187 ;; >>> /home/sdcc-builder/build/sdcc-build/orig/sdcc/src/pic14/gen.c:5495:genGenericShift
                      02188 ;; ***  popGetLabel  key=33, label offset 51
0247   2???           02189         GOTO    _00184_DS_
                      02190 ;;; /home/sdcc-builder/build/sdcc-build/orig/sdcc/src/pic14/gen.c:5369:genMultiAsm *{*
                      02191 ;; ***  genMultiAsm  5370
                      02192 ;; >>> /home/sdcc-builder/build/sdcc-build/orig/sdcc/src/pic14/gen.c:5387:genMultiAsm
                      02193 ;;      1109 rIdx = r0x1052 
0248                  02194 _00183_DS_
0248   ???? ????      02195         BANKSEL r0x1009
024A   0D??           02196         RLF     r0x1009,F
                      02197 ;; >>> /home/sdcc-builder/build/sdcc-build/orig/sdcc/src/pic14/gen.c:5501:genGenericShift
024B   3E01           02198         ADDLW   0x01
                      02199 ;; >>> /home/sdcc-builder/build/sdcc-build/orig/sdcc/src/pic14/gen.c:5502:genGenericShift
024C   1C03           02200         BTFSS   STATUS,0
gpasm-1.4.0 #1106 (Oct  6 2014) obj\Debug\gpi   6-23-2020  11:52:00         PAGE 43


LOC    OBJECT CODE    LINE  SOURCE TEXT
  VALUE

                      02201 ;; >>> /home/sdcc-builder/build/sdcc-build/orig/sdcc/src/pic14/gen.c:5503:genGenericShift
                      02202 ;; ***  popGetLabel  key=32, label offset 51
024D   2???           02203         GOTO    _00183_DS_
                      02204 ;;; /home/sdcc-builder/build/sdcc-build/orig/sdcc/src/pic14/gen.c:2316:resultRemat *{*
                      02205 ;;; /home/sdcc-builder/build/sdcc-build/orig/sdcc/src/pic14/gen.c:4220:genOr *{*
                      02206 ;; ***  genOr  4221
                      02207 ;;      694 register type nRegs=1
                      02208 ;;      694 register type nRegs=1
                      02209 ;; ***  aopForSym 315
                      02210 ;;      327 sym->rname = _PORTE, size = 1
                      02211 ;;      line = 4227 result AOP_DIR=_PORTE, size=1, left AOP_REG=r0x104F, size=1, right AOP_REG=r0x1052, 
                            size=1
                      02212 ;;      line = 4253 result AOP_DIR=_PORTE, size=1, left AOP_REG=r0x104F, size=1, right AOP_REG=r0x1052, 
                            size=1
                      02213 ;; >>> /home/sdcc-builder/build/sdcc-build/orig/sdcc/src/pic14/gen.c:4479:genOr
                      02214 ;;      1109 rIdx = r0x1052 
024E                  02215 _00184_DS_
024E   ???? ????      02216         BANKSEL r0x1009
0250   08??           02217         MOVF    r0x1009,W
                      02218 ;; >>> /home/sdcc-builder/build/sdcc-build/orig/sdcc/src/pic14/gen.c:4480:genOr
                      02219 ;;      1109 rIdx = r0x104F 
0251   04??           02220         IORWF   r0x1006,W
                      02221 ;; >>> /home/sdcc-builder/build/sdcc-build/orig/sdcc/src/pic14/gen.c:4481:genOr
                      02222 ;;      1009
                      02223 ;;      1028  _PORTE   offset=0
0252   ???? ????      02224         BANKSEL _PORTE
0254   00??           02225         MOVWF   _PORTE
                      02226 ;;; /home/sdcc-builder/build/sdcc-build/orig/sdcc/src/pic14/gen.c:2316:resultRemat *{*
                      02227 ;;; /home/sdcc-builder/build/sdcc-build/orig/sdcc/src/pic14/gen.c:2760:genLabel *{*
                      02228 ;; ***  genLabel  2763
                      02229 ;;; /home/sdcc-builder/build/sdcc-build/orig/sdcc/src/pic14/gen.c:2316:resultRemat *{*
                      02230 ;;; /home/sdcc-builder/build/sdcc-build/orig/sdcc/src/pic14/gen.c:2528:genEndFunction *{*
                      02231 ;; ***  genEndFunction  2530
0255                  02232 _00158_DS_
                      02233         .line   65; "gpio.c"    }
0255   0008           02234         RETURN  
                      02235 ; exit point of _GPIO_SetPortPinState
                      02236 ;;; /home/sdcc-builder/build/sdcc-build/orig/sdcc/src/pic14/gen.c:7426:genpic14Code *{*
                      02237 
                      02238 ;***
                      02239 ;  pBlock Stats: dbName = C
                      02240 ;***
                      02241 ;entry:  _GPIO_Update   ;Function start
                      02242 ; 2 exit points
                      02243 ;has an exit
                      02244 ;; Starting pCode block
                      02245 ;;; /home/sdcc-builder/build/sdcc-build/orig/sdcc/src/pic14/gen.c:2316:resultRemat *{*
                      02246 ;;; /home/sdcc-builder/build/sdcc-build/orig/sdcc/src/pic14/gen.c:2760:genLabel *{*
                      02247 ;; ***  genLabel  2763
                      02248 ;;; /home/sdcc-builder/build/sdcc-build/orig/sdcc/src/pic14/gen.c:2316:resultRemat *{*
                      02249 ;;; /home/sdcc-builder/build/sdcc-build/orig/sdcc/src/pic14/gen.c:2340:genFunction *{*
                      02250 ;; ***  genFunction  2342 curr label offset=41previous max_key=2 
0256                  02251 _GPIO_Update    ;Function start
gpasm-1.4.0 #1106 (Oct  6 2014) obj\Debug\gpi   6-23-2020  11:52:00         PAGE 44


LOC    OBJECT CODE    LINE  SOURCE TEXT
  VALUE

                      02252 ; 2 exit points
                      02253 ;;; /home/sdcc-builder/build/sdcc-build/orig/sdcc/src/pic14/gen.c:2316:resultRemat *{*
                      02254 ;;; /home/sdcc-builder/build/sdcc-build/orig/sdcc/src/pic14/gen.c:2760:genLabel *{*
                      02255 ;; ***  genLabel  2763
                      02256 ;;; /home/sdcc-builder/build/sdcc-build/orig/sdcc/src/pic14/gen.c:2316:resultRemat *{*
                      02257 ;;; /home/sdcc-builder/build/sdcc-build/orig/sdcc/src/pic14/gen.c:2528:genEndFunction *{*
                      02258 ;; ***  genEndFunction  2530
                      02259         .line   43; "gpio.c"    }
0256   0008           02260         RETURN  
                      02261 ; exit point of _GPIO_Update
                      02262 ;;; /home/sdcc-builder/build/sdcc-build/orig/sdcc/src/pic14/gen.c:7426:genpic14Code *{*
                      02263 
                      02264 ;***
                      02265 ;  pBlock Stats: dbName = C
                      02266 ;***
                      02267 ;entry:  _GPIO_InitPort ;Function start
                      02268 ; 2 exit points
                      02269 ;has an exit
                      02270 ;functions called:
                      02271 ;   _GPIO_InitPortPin
                      02272 ;   _GPIO_InitPortPin
                      02273 ;5 compiler assigned registers:
                      02274 ;   r0x1015
                      02275 ;   STK00
                      02276 ;   r0x1016
                      02277 ;   r0x1017
                      02278 ;   STK01
                      02279 ;; Starting pCode block
                      02280 ;;; /home/sdcc-builder/build/sdcc-build/orig/sdcc/src/pic14/gen.c:2316:resultRemat *{*
                      02281 ;;; /home/sdcc-builder/build/sdcc-build/orig/sdcc/src/pic14/gen.c:2760:genLabel *{*
                      02282 ;; ***  genLabel  2763
                      02283 ;;; /home/sdcc-builder/build/sdcc-build/orig/sdcc/src/pic14/gen.c:2316:resultRemat *{*
                      02284 ;;; /home/sdcc-builder/build/sdcc-build/orig/sdcc/src/pic14/gen.c:2340:genFunction *{*
                      02285 ;; ***  genFunction  2342 curr label offset=4previous max_key=33 
0257                  02286 _GPIO_InitPort  ;Function start
                      02287 ; 2 exit points
                      02288 ;;; /home/sdcc-builder/build/sdcc-build/orig/sdcc/src/pic14/gen.c:2316:resultRemat *{*
                      02289 ;;; /home/sdcc-builder/build/sdcc-build/orig/sdcc/src/pic14/gen.c:7358:genReceive *{*
                      02290 ;; ***  genReceive  7359
                      02291 ;;      694 register type nRegs=1
                      02292 ;;; /home/sdcc-builder/build/sdcc-build/orig/sdcc/src/pic14/gen.c:1907:assignResultValue *{*
                      02293 ;; ***  assignResultValue  1909
                      02294 ;;      line = 1911 result -=-, size=0, left AOP_REG=r0x104C, size=1, right -=-, size=0
                      02295 ;; >>> /home/sdcc-builder/build/sdcc-build/orig/sdcc/src/pic14/gen.c:1393:movwf
                      02296 ;;      1109 rIdx = r0x104C 
                      02297         .line   30; "gpio.c"    void GPIO_InitPort(tPort port, tPortDirection direction)
0257   ???? ????      02298         BANKSEL r0x1015
0259   00??           02299         MOVWF   r0x1015
                      02300 ;;; /home/sdcc-builder/build/sdcc-build/orig/sdcc/src/pic14/gen.c:2316:resultRemat *{*
                      02301 ;;; /home/sdcc-builder/build/sdcc-build/orig/sdcc/src/pic14/gen.c:7358:genReceive *{*
                      02302 ;; ***  genReceive  7359
                      02303 ;;      694 register type nRegs=1
                      02304 ;;; /home/sdcc-builder/build/sdcc-build/orig/sdcc/src/pic14/gen.c:1907:assignResultValue *{*
gpasm-1.4.0 #1106 (Oct  6 2014) obj\Debug\gpi   6-23-2020  11:52:00         PAGE 45


LOC    OBJECT CODE    LINE  SOURCE TEXT
  VALUE

                      02305 ;; ***  assignResultValue  1909
                      02306 ;;      line = 1911 result -=-, size=0, left AOP_REG=r0x104D, size=1, right -=-, size=0
                      02307 ;; >>> /home/sdcc-builder/build/sdcc-build/orig/sdcc/src/pic14/gen.c:1423:get_returnvalue
                      02308 ;; ***  popRegFromIdx,1042  , rIdx=0x7f
025A   08??           02309         MOVF    STK00,W
                      02310 ;; >>> /home/sdcc-builder/build/sdcc-build/orig/sdcc/src/pic14/gen.c:1393:movwf
                      02311 ;;      1109 rIdx = r0x104D 
025B   00??           02312         MOVWF   r0x1016
                      02313 ;;; /home/sdcc-builder/build/sdcc-build/orig/sdcc/src/pic14/gen.c:2316:resultRemat *{*
                      02314 ;;; /home/sdcc-builder/build/sdcc-build/orig/sdcc/src/pic14/gen.c:6927:genAssign *{*
                      02315 ;; ***  genAssign  6928
                      02316 ;;      694 register type nRegs=1
                      02317 ;;      line = 6937 result AOP_REG=r0x104E, size=1, left -=-, size=0, right AOP_LIT=0x00, size=1
                      02318 ;; ***  genAssign  7023
                      02319 ;; >>> /home/sdcc-builder/build/sdcc-build/orig/sdcc/src/pic14/gen.c:7035:genAssign
                      02320 ;;      1109 rIdx = r0x104E 
                      02321         .line   34; "gpio.c"    for (i = 0; i < 8; i++)
025C   01??           02322         CLRF    r0x1017
                      02323 ;;; /home/sdcc-builder/build/sdcc-build/orig/sdcc/src/pic14/gen.c:2316:resultRemat *{*
                      02324 ;;; /home/sdcc-builder/build/sdcc-build/orig/sdcc/src/pic14/gen.c:2760:genLabel *{*
                      02325 ;; ***  genLabel  2763
                      02326 ;;; /home/sdcc-builder/build/sdcc-build/orig/sdcc/src/pic14/gen.c:2316:resultRemat *{*
                      02327 ;;; /home/sdcc-builder/build/sdcc-build/orig/sdcc/src/pic14/gen.c:2316:resultRemat *{*
                      02328 ;;; /home/sdcc-builder/build/sdcc-build/orig/sdcc/src/pic14/gen.c:2316:resultRemat *{*
                      02329 ;;; /home/sdcc-builder/build/sdcc-build/orig/sdcc/src/pic14/gen.c:2316:resultRemat *{*
                      02330 ;;; /home/sdcc-builder/build/sdcc-build/orig/sdcc/src/pic14/gen.c:2086:genCall *{*
                      02331 ;; ***  genCall  2088
                      02332 ;;; /home/sdcc-builder/build/sdcc-build/orig/sdcc/src/pic14/gen.c:1801:saveRegisters *{*
                      02333 ;; ***  saveRegisters  1803
                      02334 ;;      694 register type nRegs=1
                      02335 ;;      694 register type nRegs=1
                      02336 ;;      694 register type nRegs=1
                      02337 ;;      694 register type nRegs=1
                      02338 ;;      2135 left AOP_REG
                      02339 ;;; /home/sdcc-builder/build/sdcc-build/orig/sdcc/src/pic14/gen.c:1343:mov2w_op *{*
                      02340 ;; ***  mov2w  1381  offset=0
                      02341 ;; >>> /home/sdcc-builder/build/sdcc-build/orig/sdcc/src/pic14/gen.c:1386:mov2w
                      02342 ;;      1109 rIdx = r0x104D 
025D                  02343 _00143_DS_
                      02344         .line   36; "gpio.c"    GPIO_InitPortPin(port, i, direction);
025D   ???? ????      02345         BANKSEL r0x1016
025F   08??           02346         MOVF    r0x1016,W
                      02347 ;;      694 register type nRegs=1
                      02348 ;;      2135 left AOP_REG
                      02349 ;; >>> /home/sdcc-builder/build/sdcc-build/orig/sdcc/src/pic14/gen.c:2143:genCall
                      02350 ;; ***  popRegFromIdx,1042  , rIdx=0x7e
0260   00??           02351         MOVWF   STK01
                      02352 ;;; /home/sdcc-builder/build/sdcc-build/orig/sdcc/src/pic14/gen.c:1343:mov2w_op *{*
                      02353 ;; ***  mov2w  1381  offset=0
                      02354 ;; >>> /home/sdcc-builder/build/sdcc-build/orig/sdcc/src/pic14/gen.c:1386:mov2w
                      02355 ;;      1109 rIdx = r0x104E 
0261   08??           02356         MOVF    r0x1017,W
                      02357 ;;      694 register type nRegs=1
gpasm-1.4.0 #1106 (Oct  6 2014) obj\Debug\gpi   6-23-2020  11:52:00         PAGE 46


LOC    OBJECT CODE    LINE  SOURCE TEXT
  VALUE

                      02358 ;;      2135 left AOP_REG
                      02359 ;; >>> /home/sdcc-builder/build/sdcc-build/orig/sdcc/src/pic14/gen.c:2143:genCall
                      02360 ;; ***  popRegFromIdx,1042  , rIdx=0x7f
0262   00??           02361         MOVWF   STK00
                      02362 ;;; /home/sdcc-builder/build/sdcc-build/orig/sdcc/src/pic14/gen.c:1343:mov2w_op *{*
                      02363 ;; ***  mov2w  1381  offset=0
                      02364 ;; >>> /home/sdcc-builder/build/sdcc-build/orig/sdcc/src/pic14/gen.c:1386:mov2w
                      02365 ;;      1109 rIdx = r0x104C 
0263   08??           02366         MOVF    r0x1015,W
                      02367 ;; >>> /home/sdcc-builder/build/sdcc-build/orig/sdcc/src/pic14/gen.c:2175:genCall
0264   2???           02368         CALL    _GPIO_InitPortPin
                      02369 ;;; /home/sdcc-builder/build/sdcc-build/orig/sdcc/src/pic14/gen.c:1845:unsaveRegisters *{*
                      02370 ;; ***  unsaveRegisters  1847
                      02371 ;;; /home/sdcc-builder/build/sdcc-build/orig/sdcc/src/pic14/gen.c:2316:resultRemat *{*
                      02372 ;; ***  genPlus  611
                      02373 ;;; /home/sdcc-builder/build/sdcc-build/orig/sdcc/src/pic14/genarith.c:612:genPlus *{*
                      02374 ;;      694 register type nRegs=1
                      02375 ;;      575
                      02376 ;;      line = 618 result AOP_REG=r0x104E, size=1, left AOP_REG=r0x104E, size=1, right AOP_LIT=0x01, siz
                            e=1
                      02377 ;;; /home/sdcc-builder/build/sdcc-build/orig/sdcc/src/pic14/genarith.c:142:genPlusIncr *{*
                      02378 ;; ***  genPlusIncr  144
                      02379 ;;      result AOP_REG, left AOP_REG, right AOP_LIT
                      02380 ;;      genPlusIncr  156
                      02381 ;; >>> /home/sdcc-builder/build/sdcc-build/orig/sdcc/src/pic14/genarith.c:168:genPlusIncr
                      02382 ;;      1109 rIdx = r0x104E 
                      02383         .line   34; "gpio.c"    for (i = 0; i < 8; i++)
0265   ???? ????      02384         BANKSEL r0x1017
0267   0A??           02385         INCF    r0x1017,F
                      02386 ;;; /home/sdcc-builder/build/sdcc-build/orig/sdcc/src/pic14/gen.c:2316:resultRemat *{*
                      02387 ;;; /home/sdcc-builder/build/sdcc-build/orig/sdcc/src/pic14/gen.c:3583:genCmpLt *{*
                      02388 ;; ***  genCmpLt  3584
                      02389 ;;      694 register type nRegs=1
                      02390 ;;; /home/sdcc-builder/build/sdcc-build/orig/sdcc/src/pic14/gen.c:3294:genCmp *{*
                      02391 ;;unsigned compare: left < lit(0x8=8), size=1
                      02392 ;; >>> /home/sdcc-builder/build/sdcc-build/orig/sdcc/src/pic14/gen.c:3265:pic14_mov2w_regOrLit
0268   3008           02393         MOVLW   0x08
                      02394 ;; >>> /home/sdcc-builder/build/sdcc-build/orig/sdcc/src/pic14/gen.c:3432:genCmp
                      02395 ;;      1109 rIdx = r0x104E 
0269   02??           02396         SUBWF   r0x1017,W
                      02397 ;;; /home/sdcc-builder/build/sdcc-build/orig/sdcc/src/pic14/gen.c:3237:genSkipc *{*
                      02398 ;; >>> /home/sdcc-builder/build/sdcc-build/orig/sdcc/src/pic14/gen.c:3244:genSkipc
026A   1C03           02399         BTFSS   STATUS,0
                      02400 ;; >>> /home/sdcc-builder/build/sdcc-build/orig/sdcc/src/pic14/gen.c:3246:genSkipc
                      02401 ;; ***  popGetLabel  key=2, label offset 41
026B   2???           02402         GOTO    _00143_DS_
                      02403 ;;genSkipc:3247: created from rifx:027A5DF4
                      02404 ;;; /home/sdcc-builder/build/sdcc-build/orig/sdcc/src/pic14/gen.c:2316:resultRemat *{*
                      02405 ;;; /home/sdcc-builder/build/sdcc-build/orig/sdcc/src/pic14/gen.c:2316:resultRemat *{*
                      02406 ;;; /home/sdcc-builder/build/sdcc-build/orig/sdcc/src/pic14/gen.c:2760:genLabel *{*
                      02407 ;; ***  genLabel  2763
                      02408 ;;; /home/sdcc-builder/build/sdcc-build/orig/sdcc/src/pic14/gen.c:2316:resultRemat *{*
                      02409 ;;; /home/sdcc-builder/build/sdcc-build/orig/sdcc/src/pic14/gen.c:2528:genEndFunction *{*
gpasm-1.4.0 #1106 (Oct  6 2014) obj\Debug\gpi   6-23-2020  11:52:00         PAGE 47


LOC    OBJECT CODE    LINE  SOURCE TEXT
  VALUE

                      02410 ;; ***  genEndFunction  2530
026C   0008           02411         RETURN  
                      02412 ; exit point of _GPIO_InitPort
                      02413 ;;; /home/sdcc-builder/build/sdcc-build/orig/sdcc/src/pic14/gen.c:7426:genpic14Code *{*
                      02414 
                      02415 ;***
                      02416 ;  pBlock Stats: dbName = C
                      02417 ;***
                      02418 ;entry:  _GPIO_InitPortPin      ;Function start
                      02419 ; 2 exit points
                      02420 ;has an exit
                      02421 ;6 compiler assigned registers:
                      02422 ;   r0x1011
                      02423 ;   STK00
                      02424 ;   r0x1012
                      02425 ;   STK01
                      02426 ;   r0x1013
                      02427 ;   r0x1014
                      02428 ;; Starting pCode block
                      02429 ;;; /home/sdcc-builder/build/sdcc-build/orig/sdcc/src/pic14/gen.c:2316:resultRemat *{*
                      02430 ;;; /home/sdcc-builder/build/sdcc-build/orig/sdcc/src/pic14/gen.c:2760:genLabel *{*
                      02431 ;; ***  genLabel  2763
                      02432 ;;; /home/sdcc-builder/build/sdcc-build/orig/sdcc/src/pic14/gen.c:2316:resultRemat *{*
                      02433 ;;; /home/sdcc-builder/build/sdcc-build/orig/sdcc/src/pic14/gen.c:2340:genFunction *{*
                      02434 ;; ***  genFunction  2342 curr label offset=0previous max_key=0 
026D                  02435 _GPIO_InitPortPin       ;Function start
                      02436 ; 2 exit points
                      02437 ;;; /home/sdcc-builder/build/sdcc-build/orig/sdcc/src/pic14/gen.c:2316:resultRemat *{*
                      02438 ;;; /home/sdcc-builder/build/sdcc-build/orig/sdcc/src/pic14/gen.c:7358:genReceive *{*
                      02439 ;; ***  genReceive  7359
                      02440 ;;      694 register type nRegs=1
                      02441 ;;; /home/sdcc-builder/build/sdcc-build/orig/sdcc/src/pic14/gen.c:1907:assignResultValue *{*
                      02442 ;; ***  assignResultValue  1909
                      02443 ;;      line = 1911 result -=-, size=0, left AOP_REG=r0x1048, size=1, right -=-, size=0
                      02444 ;; >>> /home/sdcc-builder/build/sdcc-build/orig/sdcc/src/pic14/gen.c:1393:movwf
                      02445 ;;      1109 rIdx = r0x1048 
                      02446         .line   8; "gpio.c"     void GPIO_InitPortPin(tPort port, unsigned char pin, tPortDirection dire
                            ction)
026D   ???? ????      02447         BANKSEL r0x1011
026F   00??           02448         MOVWF   r0x1011
                      02449 ;;; /home/sdcc-builder/build/sdcc-build/orig/sdcc/src/pic14/gen.c:2316:resultRemat *{*
                      02450 ;;; /home/sdcc-builder/build/sdcc-build/orig/sdcc/src/pic14/gen.c:7358:genReceive *{*
                      02451 ;; ***  genReceive  7359
                      02452 ;;      694 register type nRegs=1
                      02453 ;;; /home/sdcc-builder/build/sdcc-build/orig/sdcc/src/pic14/gen.c:1907:assignResultValue *{*
                      02454 ;; ***  assignResultValue  1909
                      02455 ;;      line = 1911 result -=-, size=0, left AOP_REG=r0x1049, size=1, right -=-, size=0
                      02456 ;; >>> /home/sdcc-builder/build/sdcc-build/orig/sdcc/src/pic14/gen.c:1423:get_returnvalue
                      02457 ;; ***  popRegFromIdx,1042  , rIdx=0x7f
0270   08??           02458         MOVF    STK00,W
                      02459 ;; >>> /home/sdcc-builder/build/sdcc-build/orig/sdcc/src/pic14/gen.c:1393:movwf
                      02460 ;;      1109 rIdx = r0x1049 
0271   00??           02461         MOVWF   r0x1012
gpasm-1.4.0 #1106 (Oct  6 2014) obj\Debug\gpi   6-23-2020  11:52:00         PAGE 48


LOC    OBJECT CODE    LINE  SOURCE TEXT
  VALUE

                      02462 ;;; /home/sdcc-builder/build/sdcc-build/orig/sdcc/src/pic14/gen.c:2316:resultRemat *{*
                      02463 ;;; /home/sdcc-builder/build/sdcc-build/orig/sdcc/src/pic14/gen.c:7358:genReceive *{*
                      02464 ;; ***  genReceive  7359
                      02465 ;;      694 register type nRegs=1
                      02466 ;;; /home/sdcc-builder/build/sdcc-build/orig/sdcc/src/pic14/gen.c:1907:assignResultValue *{*
                      02467 ;; ***  assignResultValue  1909
                      02468 ;;      line = 1911 result -=-, size=0, left AOP_REG=r0x104A, size=1, right -=-, size=0
                      02469 ;; >>> /home/sdcc-builder/build/sdcc-build/orig/sdcc/src/pic14/gen.c:1423:get_returnvalue
                      02470 ;; ***  popRegFromIdx,1042  , rIdx=0x7e
0272   08??           02471         MOVF    STK01,W
                      02472 ;; >>> /home/sdcc-builder/build/sdcc-build/orig/sdcc/src/pic14/gen.c:1393:movwf
                      02473 ;;      1109 rIdx = r0x104A 
0273   00??           02474         MOVWF   r0x1013
                      02475 ;;; /home/sdcc-builder/build/sdcc-build/orig/sdcc/src/pic14/gen.c:2316:resultRemat *{*
                      02476 ;;; /home/sdcc-builder/build/sdcc-build/orig/sdcc/src/pic14/gen.c:3547:genCmpGt *{*
                      02477 ;; ***  genCmpGt  3548
                      02478 ;;      694 register type nRegs=1
                      02479 ;;; /home/sdcc-builder/build/sdcc-build/orig/sdcc/src/pic14/gen.c:3294:genCmp *{*
                      02480 ;;swapping arguments (AOP_TYPEs 1/2)
                      02481 ;;unsigned compare: left >= lit(0x5=5), size=1
                      02482 ;; >>> /home/sdcc-builder/build/sdcc-build/orig/sdcc/src/pic14/gen.c:3265:pic14_mov2w_regOrLit
                      02483         .line   10; "gpio.c"    switch(port)
0274   3005           02484         MOVLW   0x05
                      02485 ;; >>> /home/sdcc-builder/build/sdcc-build/orig/sdcc/src/pic14/gen.c:3432:genCmp
                      02486 ;;      1109 rIdx = r0x1048 
0275   02??           02487         SUBWF   r0x1011,W
                      02488 ;;; /home/sdcc-builder/build/sdcc-build/orig/sdcc/src/pic14/gen.c:3237:genSkipc *{*
                      02489 ;; >>> /home/sdcc-builder/build/sdcc-build/orig/sdcc/src/pic14/gen.c:3242:genSkipc
0276   1803           02490         BTFSC   STATUS,0
                      02491 ;; >>> /home/sdcc-builder/build/sdcc-build/orig/sdcc/src/pic14/gen.c:3246:genSkipc
                      02492 ;; ***  popGetLabel  key=7, label offset 4
0277   2???           02493         GOTO    _00111_DS_
                      02494 ;;genSkipc:3247: created from rifx:027A5DF4
                      02495 ;;; /home/sdcc-builder/build/sdcc-build/orig/sdcc/src/pic14/gen.c:2316:resultRemat *{*
                      02496 ;;; /home/sdcc-builder/build/sdcc-build/orig/sdcc/src/pic14/gen.c:2316:resultRemat *{*
                      02497 ;;; /home/sdcc-builder/build/sdcc-build/orig/sdcc/src/pic14/gen.c:7071:genJumpTab *{*
                      02498 ;; ***  genJumpTab  7072
                      02499 ;;      694 register type nRegs=1
                      02500 ;; >>> /home/sdcc-builder/build/sdcc-build/orig/sdcc/src/pic14/gen.c:7087:genJumpTab
                      02501 ;; ***  popGetLabel  key=13, label offset 4
0278   30??           02502         MOVLW   HIGH(_00117_DS_)
                      02503 ;; >>> /home/sdcc-builder/build/sdcc-build/orig/sdcc/src/pic14/gen.c:7088:genJumpTab
0279   1283 1303      02504         BANKSEL PCLATH
027B   008A           02505         MOVWF   PCLATH
                      02506 ;; >>> /home/sdcc-builder/build/sdcc-build/orig/sdcc/src/pic14/gen.c:7089:genJumpTab
                      02507 ;; ***  popGetLabel  key=13, label offset 4
027C   30??           02508         MOVLW   _00117_DS_
                      02509 ;; >>> /home/sdcc-builder/build/sdcc-build/orig/sdcc/src/pic14/gen.c:7090:genJumpTab
                      02510 ;;      1109 rIdx = r0x1048 
027D   ???? ????      02511         BANKSEL r0x1011
027F   07??           02512         ADDWF   r0x1011,W
                      02513 ;; >>> /home/sdcc-builder/build/sdcc-build/orig/sdcc/src/pic14/gen.c:7091:genJumpTab
0280   1C03           02514         BTFSS   STATUS,0
gpasm-1.4.0 #1106 (Oct  6 2014) obj\Debug\gpi   6-23-2020  11:52:00         PAGE 49


LOC    OBJECT CODE    LINE  SOURCE TEXT
  VALUE

0281   2???           02515         GOTO    _00003_DS_
                      02516 ;; >>> /home/sdcc-builder/build/sdcc-build/orig/sdcc/src/pic14/gen.c:7092:genJumpTab
0282   1283 1303      02517         BANKSEL PCLATH
0284   0A8A           02518         INCF    PCLATH,F
                      02519 ;; >>> /home/sdcc-builder/build/sdcc-build/orig/sdcc/src/pic14/gen.c:7093:genJumpTab
0285                  02520 _00003_DS_
0285   0082           02521         MOVWF   PCL
                      02522 ;; >>> /home/sdcc-builder/build/sdcc-build/orig/sdcc/src/pic14/gen.c:7102:genJumpTab
                      02523 ;; ***  popGetLabel  key=1, label offset 4
0286                  02524 _00117_DS_
0286   2???           02525         GOTO    _00105_DS_
                      02526 ;; >>> /home/sdcc-builder/build/sdcc-build/orig/sdcc/src/pic14/gen.c:7102:genJumpTab
                      02527 ;; ***  popGetLabel  key=2, label offset 4
0287   2???           02528         GOTO    _00106_DS_
                      02529 ;; >>> /home/sdcc-builder/build/sdcc-build/orig/sdcc/src/pic14/gen.c:7102:genJumpTab
                      02530 ;; ***  popGetLabel  key=3, label offset 4
0288   2???           02531         GOTO    _00107_DS_
                      02532 ;; >>> /home/sdcc-builder/build/sdcc-build/orig/sdcc/src/pic14/gen.c:7102:genJumpTab
                      02533 ;; ***  popGetLabel  key=4, label offset 4
0289   2???           02534         GOTO    _00108_DS_
                      02535 ;; >>> /home/sdcc-builder/build/sdcc-build/orig/sdcc/src/pic14/gen.c:7102:genJumpTab
                      02536 ;; ***  popGetLabel  key=5, label offset 4
028A   2???           02537         GOTO    _00109_DS_
                      02538 ;;; /home/sdcc-builder/build/sdcc-build/orig/sdcc/src/pic14/gen.c:2316:resultRemat *{*
                      02539 ;;; /home/sdcc-builder/build/sdcc-build/orig/sdcc/src/pic14/gen.c:2760:genLabel *{*
                      02540 ;; ***  genLabel  2763
                      02541 ;;; /home/sdcc-builder/build/sdcc-build/orig/sdcc/src/pic14/gen.c:2316:resultRemat *{*
                      02542 ;;; /home/sdcc-builder/build/sdcc-build/orig/sdcc/src/pic14/gen.c:5418:genGenericShift *{*
                      02543 ;; ***  genGenericShift  5421
                      02544 ;;      694 register type nRegs=1
                      02545 ;;      694 register type nRegs=1
                      02546 ;; ***  mov2w  1381  offset=0
                      02547 ;; >>> /home/sdcc-builder/build/sdcc-build/orig/sdcc/src/pic14/gen.c:1384:mov2w
028B                  02548 _00105_DS_
                      02549         .line   13; "gpio.c"    SET_REGISTER_PIN(TRISA, pin, direction);
028B   3001           02550         MOVLW   0x01
                      02551 ;; >>> /home/sdcc-builder/build/sdcc-build/orig/sdcc/src/pic14/gen.c:1393:movwf
                      02552 ;;      1109 rIdx = r0x1048 
028C   ???? ????      02553         BANKSEL r0x1011
028E   00??           02554         MOVWF   r0x1011
                      02555 ;; ***  addSign  861
                      02556 ;;; /home/sdcc-builder/build/sdcc-build/orig/sdcc/src/pic14/genarith.c:862:addSign *{*
                      02557 ;; ***  mov2w  1381  offset=0
                      02558 ;; >>> /home/sdcc-builder/build/sdcc-build/orig/sdcc/src/pic14/gen.c:1386:mov2w
                      02559 ;;      1109 rIdx = r0x1049 
028F   08??           02560         MOVF    r0x1012,W
                      02561 ;; >>> /home/sdcc-builder/build/sdcc-build/orig/sdcc/src/pic14/gen.c:5492:genGenericShift
0290   3C00           02562         SUBLW   0x00
                      02563 ;; >>> /home/sdcc-builder/build/sdcc-build/orig/sdcc/src/pic14/gen.c:5494:genGenericShift
0291   1903           02564         BTFSC   STATUS,2
                      02565 ;; >>> /home/sdcc-builder/build/sdcc-build/orig/sdcc/src/pic14/gen.c:5495:genGenericShift
                      02566 ;; ***  popGetLabel  key=15, label offset 4
0292   2???           02567         GOTO    _00119_DS_
gpasm-1.4.0 #1106 (Oct  6 2014) obj\Debug\gpi   6-23-2020  11:52:00         PAGE 50


LOC    OBJECT CODE    LINE  SOURCE TEXT
  VALUE

                      02568 ;;; /home/sdcc-builder/build/sdcc-build/orig/sdcc/src/pic14/gen.c:5369:genMultiAsm *{*
                      02569 ;; ***  genMultiAsm  5370
                      02570 ;; >>> /home/sdcc-builder/build/sdcc-build/orig/sdcc/src/pic14/gen.c:5387:genMultiAsm
                      02571 ;;      1109 rIdx = r0x1048 
0293                  02572 _00118_DS_
0293   ???? ????      02573         BANKSEL r0x1011
0295   0D??           02574         RLF     r0x1011,F
                      02575 ;; >>> /home/sdcc-builder/build/sdcc-build/orig/sdcc/src/pic14/gen.c:5501:genGenericShift
0296   3E01           02576         ADDLW   0x01
                      02577 ;; >>> /home/sdcc-builder/build/sdcc-build/orig/sdcc/src/pic14/gen.c:5502:genGenericShift
0297   1C03           02578         BTFSS   STATUS,0
                      02579 ;; >>> /home/sdcc-builder/build/sdcc-build/orig/sdcc/src/pic14/gen.c:5503:genGenericShift
                      02580 ;; ***  popGetLabel  key=14, label offset 4
0298   2???           02581         GOTO    _00118_DS_
                      02582 ;;; /home/sdcc-builder/build/sdcc-build/orig/sdcc/src/pic14/gen.c:2316:resultRemat *{*
                      02583 ;;; /home/sdcc-builder/build/sdcc-build/orig/sdcc/src/pic14/gen.c:1609:genCpl *{*
                      02584 ;; ***  genCpl  1611
                      02585 ;;      694 register type nRegs=1
                      02586 ;;      694 register type nRegs=1
                      02587 ;; >>> /home/sdcc-builder/build/sdcc-build/orig/sdcc/src/pic14/gen.c:1631:genCpl
                      02588 ;;      1109 rIdx = r0x1048 
0299                  02589 _00119_DS_
0299   ???? ????      02590         BANKSEL r0x1011
029B   09??           02591         COMF    r0x1011,F
029C   ???? ????      02592         BANKSEL _TRISA
029E   08??           02593         MOVF    _TRISA,W
                      02594 ;; >>> /home/sdcc-builder/build/sdcc-build/orig/sdcc/src/pic14/gen.c:4138:genAnd
                      02595 ;;      1109 rIdx = r0x1048 
029F   ???? ????      02596         BANKSEL r0x1011
02A1   05??           02597         ANDWF   r0x1011,F
                      02598 ;;; /home/sdcc-builder/build/sdcc-build/orig/sdcc/src/pic14/gen.c:2316:resultRemat *{*
                      02599 ;;; /home/sdcc-builder/build/sdcc-build/orig/sdcc/src/pic14/gen.c:5418:genGenericShift *{*
                      02600 ;; ***  genGenericShift  5421
                      02601 ;;      694 register type nRegs=1
                      02602 ;;      694 register type nRegs=1
                      02603 ;;      694 register type nRegs=1
                      02604 ;; ***  mov2w  1381  offset=0
                      02605 ;; >>> /home/sdcc-builder/build/sdcc-build/orig/sdcc/src/pic14/gen.c:1386:mov2w
                      02606 ;;      1109 rIdx = r0x104A 
02A2   08??           02607         MOVF    r0x1013,W
                      02608 ;; >>> /home/sdcc-builder/build/sdcc-build/orig/sdcc/src/pic14/gen.c:1393:movwf
                      02609 ;;      1109 rIdx = r0x104B 
02A3   00??           02610         MOVWF   r0x1014
                      02611 ;; ***  addSign  861
                      02612 ;;; /home/sdcc-builder/build/sdcc-build/orig/sdcc/src/pic14/genarith.c:862:addSign *{*
                      02613 ;; ***  mov2w  1381  offset=0
                      02614 ;; >>> /home/sdcc-builder/build/sdcc-build/orig/sdcc/src/pic14/gen.c:1386:mov2w
                      02615 ;;      1109 rIdx = r0x1049 
02A4   08??           02616         MOVF    r0x1012,W
                      02617 ;; >>> /home/sdcc-builder/build/sdcc-build/orig/sdcc/src/pic14/gen.c:5492:genGenericShift
02A5   3C00           02618         SUBLW   0x00
                      02619 ;; >>> /home/sdcc-builder/build/sdcc-build/orig/sdcc/src/pic14/gen.c:5494:genGenericShift
02A6   1903           02620         BTFSC   STATUS,2
gpasm-1.4.0 #1106 (Oct  6 2014) obj\Debug\gpi   6-23-2020  11:52:00         PAGE 51


LOC    OBJECT CODE    LINE  SOURCE TEXT
  VALUE

                      02621 ;; >>> /home/sdcc-builder/build/sdcc-build/orig/sdcc/src/pic14/gen.c:5495:genGenericShift
                      02622 ;; ***  popGetLabel  key=17, label offset 4
02A7   2???           02623         GOTO    _00121_DS_
                      02624 ;;; /home/sdcc-builder/build/sdcc-build/orig/sdcc/src/pic14/gen.c:5369:genMultiAsm *{*
                      02625 ;; ***  genMultiAsm  5370
                      02626 ;; >>> /home/sdcc-builder/build/sdcc-build/orig/sdcc/src/pic14/gen.c:5387:genMultiAsm
                      02627 ;;      1109 rIdx = r0x104B 
02A8                  02628 _00120_DS_
02A8   ???? ????      02629         BANKSEL r0x1014
02AA   0D??           02630         RLF     r0x1014,F
                      02631 ;; >>> /home/sdcc-builder/build/sdcc-build/orig/sdcc/src/pic14/gen.c:5501:genGenericShift
02AB   3E01           02632         ADDLW   0x01
                      02633 ;; >>> /home/sdcc-builder/build/sdcc-build/orig/sdcc/src/pic14/gen.c:5502:genGenericShift
02AC   1C03           02634         BTFSS   STATUS,0
                      02635 ;; >>> /home/sdcc-builder/build/sdcc-build/orig/sdcc/src/pic14/gen.c:5503:genGenericShift
                      02636 ;; ***  popGetLabel  key=16, label offset 4
02AD   2???           02637         GOTO    _00120_DS_
                      02638 ;;; /home/sdcc-builder/build/sdcc-build/orig/sdcc/src/pic14/gen.c:2316:resultRemat *{*
                      02639 ;;; /home/sdcc-builder/build/sdcc-build/orig/sdcc/src/pic14/gen.c:4220:genOr *{*
                      02640 ;; ***  genOr  4221
                      02641 ;;      694 register type nRegs=1
                      02642 ;;      694 register type nRegs=1
                      02643 ;; ***  aopForSym 315
                      02644 ;;      327 sym->rname = _TRISA, size = 1
                      02645 ;;      line = 4227 result AOP_DIR=_TRISA, size=1, left AOP_REG=r0x1048, size=1, right AOP_REG=r0x104B, 
                            size=1
                      02646 ;;      line = 4253 result AOP_DIR=_TRISA, size=1, left AOP_REG=r0x1048, size=1, right AOP_REG=r0x104B, 
                            size=1
                      02647 ;; >>> /home/sdcc-builder/build/sdcc-build/orig/sdcc/src/pic14/gen.c:4479:genOr
                      02648 ;;      1109 rIdx = r0x104B 
02AE                  02649 _00121_DS_
02AE   ???? ????      02650         BANKSEL r0x1014
02B0   08??           02651         MOVF    r0x1014,W
                      02652 ;; >>> /home/sdcc-builder/build/sdcc-build/orig/sdcc/src/pic14/gen.c:4480:genOr
                      02653 ;;      1109 rIdx = r0x1048 
02B1   04??           02654         IORWF   r0x1011,W
                      02655 ;; >>> /home/sdcc-builder/build/sdcc-build/orig/sdcc/src/pic14/gen.c:4481:genOr
                      02656 ;;      1009
                      02657 ;;      1028  _TRISA   offset=0
02B2   ???? ????      02658         BANKSEL _TRISA
02B4   00??           02659         MOVWF   _TRISA
                      02660 ;;; /home/sdcc-builder/build/sdcc-build/orig/sdcc/src/pic14/gen.c:2316:resultRemat *{*
                      02661 ;;; /home/sdcc-builder/build/sdcc-build/orig/sdcc/src/pic14/gen.c:2778:genGoto *{*
                      02662 ;; >>> /home/sdcc-builder/build/sdcc-build/orig/sdcc/src/pic14/gen.c:2780:genGoto
                      02663 ;; ***  popGetLabel  key=7, label offset 4
                      02664         .line   14; "gpio.c"    break;
02B5   2???           02665         GOTO    _00111_DS_
                      02666 ;;; /home/sdcc-builder/build/sdcc-build/orig/sdcc/src/pic14/gen.c:2316:resultRemat *{*
                      02667 ;;; /home/sdcc-builder/build/sdcc-build/orig/sdcc/src/pic14/gen.c:2760:genLabel *{*
                      02668 ;; ***  genLabel  2763
                      02669 ;;; /home/sdcc-builder/build/sdcc-build/orig/sdcc/src/pic14/gen.c:2316:resultRemat *{*
                      02670 ;;; /home/sdcc-builder/build/sdcc-build/orig/sdcc/src/pic14/gen.c:5418:genGenericShift *{*
                      02671 ;; ***  genGenericShift  5421
gpasm-1.4.0 #1106 (Oct  6 2014) obj\Debug\gpi   6-23-2020  11:52:00         PAGE 52


LOC    OBJECT CODE    LINE  SOURCE TEXT
  VALUE

                      02672 ;;      694 register type nRegs=1
                      02673 ;;      694 register type nRegs=1
                      02674 ;; ***  mov2w  1381  offset=0
                      02675 ;; >>> /home/sdcc-builder/build/sdcc-build/orig/sdcc/src/pic14/gen.c:1384:mov2w
02B6                  02676 _00106_DS_
                      02677         .line   16; "gpio.c"    SET_REGISTER_PIN(TRISB, pin, direction);
02B6   3001           02678         MOVLW   0x01
                      02679 ;; >>> /home/sdcc-builder/build/sdcc-build/orig/sdcc/src/pic14/gen.c:1393:movwf
                      02680 ;;      1109 rIdx = r0x1048 
02B7   ???? ????      02681         BANKSEL r0x1011
02B9   00??           02682         MOVWF   r0x1011
                      02683 ;; ***  addSign  861
                      02684 ;;; /home/sdcc-builder/build/sdcc-build/orig/sdcc/src/pic14/genarith.c:862:addSign *{*
                      02685 ;; ***  mov2w  1381  offset=0
                      02686 ;; >>> /home/sdcc-builder/build/sdcc-build/orig/sdcc/src/pic14/gen.c:1386:mov2w
                      02687 ;;      1109 rIdx = r0x1049 
02BA   08??           02688         MOVF    r0x1012,W
                      02689 ;; >>> /home/sdcc-builder/build/sdcc-build/orig/sdcc/src/pic14/gen.c:5492:genGenericShift
02BB   3C00           02690         SUBLW   0x00
                      02691 ;; >>> /home/sdcc-builder/build/sdcc-build/orig/sdcc/src/pic14/gen.c:5494:genGenericShift
02BC   1903           02692         BTFSC   STATUS,2
                      02693 ;; >>> /home/sdcc-builder/build/sdcc-build/orig/sdcc/src/pic14/gen.c:5495:genGenericShift
                      02694 ;; ***  popGetLabel  key=19, label offset 4
02BD   2???           02695         GOTO    _00123_DS_
                      02696 ;;; /home/sdcc-builder/build/sdcc-build/orig/sdcc/src/pic14/gen.c:5369:genMultiAsm *{*
                      02697 ;; ***  genMultiAsm  5370
                      02698 ;; >>> /home/sdcc-builder/build/sdcc-build/orig/sdcc/src/pic14/gen.c:5387:genMultiAsm
                      02699 ;;      1109 rIdx = r0x1048 
02BE                  02700 _00122_DS_
02BE   ???? ????      02701         BANKSEL r0x1011
02C0   0D??           02702         RLF     r0x1011,F
                      02703 ;; >>> /home/sdcc-builder/build/sdcc-build/orig/sdcc/src/pic14/gen.c:5501:genGenericShift
02C1   3E01           02704         ADDLW   0x01
                      02705 ;; >>> /home/sdcc-builder/build/sdcc-build/orig/sdcc/src/pic14/gen.c:5502:genGenericShift
02C2   1C03           02706         BTFSS   STATUS,0
                      02707 ;; >>> /home/sdcc-builder/build/sdcc-build/orig/sdcc/src/pic14/gen.c:5503:genGenericShift
                      02708 ;; ***  popGetLabel  key=18, label offset 4
02C3   2???           02709         GOTO    _00122_DS_
                      02710 ;;; /home/sdcc-builder/build/sdcc-build/orig/sdcc/src/pic14/gen.c:2316:resultRemat *{*
                      02711 ;;; /home/sdcc-builder/build/sdcc-build/orig/sdcc/src/pic14/gen.c:1609:genCpl *{*
                      02712 ;; ***  genCpl  1611
                      02713 ;;      694 register type nRegs=1
                      02714 ;;      694 register type nRegs=1
                      02715 ;; >>> /home/sdcc-builder/build/sdcc-build/orig/sdcc/src/pic14/gen.c:1631:genCpl
                      02716 ;;      1109 rIdx = r0x1048 
02C4                  02717 _00123_DS_
02C4   ???? ????      02718         BANKSEL r0x1011
02C6   09??           02719         COMF    r0x1011,F
02C7   ???? ????      02720         BANKSEL _TRISB
02C9   08??           02721         MOVF    _TRISB,W
                      02722 ;; >>> /home/sdcc-builder/build/sdcc-build/orig/sdcc/src/pic14/gen.c:4138:genAnd
                      02723 ;;      1109 rIdx = r0x1048 
02CA   ???? ????      02724         BANKSEL r0x1011
gpasm-1.4.0 #1106 (Oct  6 2014) obj\Debug\gpi   6-23-2020  11:52:00         PAGE 53


LOC    OBJECT CODE    LINE  SOURCE TEXT
  VALUE

02CC   05??           02725         ANDWF   r0x1011,F
                      02726 ;;; /home/sdcc-builder/build/sdcc-build/orig/sdcc/src/pic14/gen.c:2316:resultRemat *{*
                      02727 ;;; /home/sdcc-builder/build/sdcc-build/orig/sdcc/src/pic14/gen.c:5418:genGenericShift *{*
                      02728 ;; ***  genGenericShift  5421
                      02729 ;;      694 register type nRegs=1
                      02730 ;;      694 register type nRegs=1
                      02731 ;;      694 register type nRegs=1
                      02732 ;; ***  mov2w  1381  offset=0
                      02733 ;; >>> /home/sdcc-builder/build/sdcc-build/orig/sdcc/src/pic14/gen.c:1386:mov2w
                      02734 ;;      1109 rIdx = r0x104A 
02CD   08??           02735         MOVF    r0x1013,W
                      02736 ;; >>> /home/sdcc-builder/build/sdcc-build/orig/sdcc/src/pic14/gen.c:1393:movwf
                      02737 ;;      1109 rIdx = r0x104B 
02CE   00??           02738         MOVWF   r0x1014
                      02739 ;; ***  addSign  861
                      02740 ;;; /home/sdcc-builder/build/sdcc-build/orig/sdcc/src/pic14/genarith.c:862:addSign *{*
                      02741 ;; ***  mov2w  1381  offset=0
                      02742 ;; >>> /home/sdcc-builder/build/sdcc-build/orig/sdcc/src/pic14/gen.c:1386:mov2w
                      02743 ;;      1109 rIdx = r0x1049 
02CF   08??           02744         MOVF    r0x1012,W
                      02745 ;; >>> /home/sdcc-builder/build/sdcc-build/orig/sdcc/src/pic14/gen.c:5492:genGenericShift
02D0   3C00           02746         SUBLW   0x00
                      02747 ;; >>> /home/sdcc-builder/build/sdcc-build/orig/sdcc/src/pic14/gen.c:5494:genGenericShift
02D1   1903           02748         BTFSC   STATUS,2
                      02749 ;; >>> /home/sdcc-builder/build/sdcc-build/orig/sdcc/src/pic14/gen.c:5495:genGenericShift
                      02750 ;; ***  popGetLabel  key=21, label offset 4
02D2   2???           02751         GOTO    _00125_DS_
                      02752 ;;; /home/sdcc-builder/build/sdcc-build/orig/sdcc/src/pic14/gen.c:5369:genMultiAsm *{*
                      02753 ;; ***  genMultiAsm  5370
                      02754 ;; >>> /home/sdcc-builder/build/sdcc-build/orig/sdcc/src/pic14/gen.c:5387:genMultiAsm
                      02755 ;;      1109 rIdx = r0x104B 
02D3                  02756 _00124_DS_
02D3   ???? ????      02757         BANKSEL r0x1014
02D5   0D??           02758         RLF     r0x1014,F
                      02759 ;; >>> /home/sdcc-builder/build/sdcc-build/orig/sdcc/src/pic14/gen.c:5501:genGenericShift
02D6   3E01           02760         ADDLW   0x01
                      02761 ;; >>> /home/sdcc-builder/build/sdcc-build/orig/sdcc/src/pic14/gen.c:5502:genGenericShift
02D7   1C03           02762         BTFSS   STATUS,0
                      02763 ;; >>> /home/sdcc-builder/build/sdcc-build/orig/sdcc/src/pic14/gen.c:5503:genGenericShift
                      02764 ;; ***  popGetLabel  key=20, label offset 4
02D8   2???           02765         GOTO    _00124_DS_
                      02766 ;;; /home/sdcc-builder/build/sdcc-build/orig/sdcc/src/pic14/gen.c:2316:resultRemat *{*
                      02767 ;;; /home/sdcc-builder/build/sdcc-build/orig/sdcc/src/pic14/gen.c:4220:genOr *{*
                      02768 ;; ***  genOr  4221
                      02769 ;;      694 register type nRegs=1
                      02770 ;;      694 register type nRegs=1
                      02771 ;; ***  aopForSym 315
                      02772 ;;      327 sym->rname = _TRISB, size = 1
                      02773 ;;      line = 4227 result AOP_DIR=_TRISB, size=1, left AOP_REG=r0x1048, size=1, right AOP_REG=r0x104B, 
                            size=1
                      02774 ;;      line = 4253 result AOP_DIR=_TRISB, size=1, left AOP_REG=r0x1048, size=1, right AOP_REG=r0x104B, 
                            size=1
                      02775 ;; >>> /home/sdcc-builder/build/sdcc-build/orig/sdcc/src/pic14/gen.c:4479:genOr
gpasm-1.4.0 #1106 (Oct  6 2014) obj\Debug\gpi   6-23-2020  11:52:00         PAGE 54


LOC    OBJECT CODE    LINE  SOURCE TEXT
  VALUE

                      02776 ;;      1109 rIdx = r0x104B 
02D9                  02777 _00125_DS_
02D9   ???? ????      02778         BANKSEL r0x1014
02DB   08??           02779         MOVF    r0x1014,W
                      02780 ;; >>> /home/sdcc-builder/build/sdcc-build/orig/sdcc/src/pic14/gen.c:4480:genOr
                      02781 ;;      1109 rIdx = r0x1048 
02DC   04??           02782         IORWF   r0x1011,W
                      02783 ;; >>> /home/sdcc-builder/build/sdcc-build/orig/sdcc/src/pic14/gen.c:4481:genOr
                      02784 ;;      1009
                      02785 ;;      1028  _TRISB   offset=0
02DD   ???? ????      02786         BANKSEL _TRISB
02DF   00??           02787         MOVWF   _TRISB
                      02788 ;;; /home/sdcc-builder/build/sdcc-build/orig/sdcc/src/pic14/gen.c:2316:resultRemat *{*
                      02789 ;;; /home/sdcc-builder/build/sdcc-build/orig/sdcc/src/pic14/gen.c:2778:genGoto *{*
                      02790 ;; >>> /home/sdcc-builder/build/sdcc-build/orig/sdcc/src/pic14/gen.c:2780:genGoto
                      02791 ;; ***  popGetLabel  key=7, label offset 4
                      02792         .line   17; "gpio.c"    break;
02E0   2???           02793         GOTO    _00111_DS_
                      02794 ;;; /home/sdcc-builder/build/sdcc-build/orig/sdcc/src/pic14/gen.c:2316:resultRemat *{*
                      02795 ;;; /home/sdcc-builder/build/sdcc-build/orig/sdcc/src/pic14/gen.c:2760:genLabel *{*
                      02796 ;; ***  genLabel  2763
                      02797 ;;; /home/sdcc-builder/build/sdcc-build/orig/sdcc/src/pic14/gen.c:2316:resultRemat *{*
                      02798 ;;; /home/sdcc-builder/build/sdcc-build/orig/sdcc/src/pic14/gen.c:5418:genGenericShift *{*
                      02799 ;; ***  genGenericShift  5421
                      02800 ;;      694 register type nRegs=1
                      02801 ;;      694 register type nRegs=1
                      02802 ;; ***  mov2w  1381  offset=0
                      02803 ;; >>> /home/sdcc-builder/build/sdcc-build/orig/sdcc/src/pic14/gen.c:1384:mov2w
02E1                  02804 _00107_DS_
                      02805         .line   19; "gpio.c"    SET_REGISTER_PIN(TRISC, pin, direction);
02E1   3001           02806         MOVLW   0x01
                      02807 ;; >>> /home/sdcc-builder/build/sdcc-build/orig/sdcc/src/pic14/gen.c:1393:movwf
                      02808 ;;      1109 rIdx = r0x1048 
02E2   ???? ????      02809         BANKSEL r0x1011
02E4   00??           02810         MOVWF   r0x1011
                      02811 ;; ***  addSign  861
                      02812 ;;; /home/sdcc-builder/build/sdcc-build/orig/sdcc/src/pic14/genarith.c:862:addSign *{*
                      02813 ;; ***  mov2w  1381  offset=0
                      02814 ;; >>> /home/sdcc-builder/build/sdcc-build/orig/sdcc/src/pic14/gen.c:1386:mov2w
                      02815 ;;      1109 rIdx = r0x1049 
02E5   08??           02816         MOVF    r0x1012,W
                      02817 ;; >>> /home/sdcc-builder/build/sdcc-build/orig/sdcc/src/pic14/gen.c:5492:genGenericShift
02E6   3C00           02818         SUBLW   0x00
                      02819 ;; >>> /home/sdcc-builder/build/sdcc-build/orig/sdcc/src/pic14/gen.c:5494:genGenericShift
02E7   1903           02820         BTFSC   STATUS,2
                      02821 ;; >>> /home/sdcc-builder/build/sdcc-build/orig/sdcc/src/pic14/gen.c:5495:genGenericShift
                      02822 ;; ***  popGetLabel  key=23, label offset 4
02E8   2???           02823         GOTO    _00127_DS_
                      02824 ;;; /home/sdcc-builder/build/sdcc-build/orig/sdcc/src/pic14/gen.c:5369:genMultiAsm *{*
                      02825 ;; ***  genMultiAsm  5370
                      02826 ;; >>> /home/sdcc-builder/build/sdcc-build/orig/sdcc/src/pic14/gen.c:5387:genMultiAsm
                      02827 ;;      1109 rIdx = r0x1048 
02E9                  02828 _00126_DS_
gpasm-1.4.0 #1106 (Oct  6 2014) obj\Debug\gpi   6-23-2020  11:52:00         PAGE 55


LOC    OBJECT CODE    LINE  SOURCE TEXT
  VALUE

02E9   ???? ????      02829         BANKSEL r0x1011
02EB   0D??           02830         RLF     r0x1011,F
                      02831 ;; >>> /home/sdcc-builder/build/sdcc-build/orig/sdcc/src/pic14/gen.c:5501:genGenericShift
02EC   3E01           02832         ADDLW   0x01
                      02833 ;; >>> /home/sdcc-builder/build/sdcc-build/orig/sdcc/src/pic14/gen.c:5502:genGenericShift
02ED   1C03           02834         BTFSS   STATUS,0
                      02835 ;; >>> /home/sdcc-builder/build/sdcc-build/orig/sdcc/src/pic14/gen.c:5503:genGenericShift
                      02836 ;; ***  popGetLabel  key=22, label offset 4
02EE   2???           02837         GOTO    _00126_DS_
                      02838 ;;; /home/sdcc-builder/build/sdcc-build/orig/sdcc/src/pic14/gen.c:2316:resultRemat *{*
                      02839 ;;; /home/sdcc-builder/build/sdcc-build/orig/sdcc/src/pic14/gen.c:1609:genCpl *{*
                      02840 ;; ***  genCpl  1611
                      02841 ;;      694 register type nRegs=1
                      02842 ;;      694 register type nRegs=1
                      02843 ;; >>> /home/sdcc-builder/build/sdcc-build/orig/sdcc/src/pic14/gen.c:1631:genCpl
                      02844 ;;      1109 rIdx = r0x1048 
02EF                  02845 _00127_DS_
02EF   ???? ????      02846         BANKSEL r0x1011
02F1   09??           02847         COMF    r0x1011,F
02F2   ???? ????      02848         BANKSEL _TRISC
02F4   08??           02849         MOVF    _TRISC,W
                      02850 ;; >>> /home/sdcc-builder/build/sdcc-build/orig/sdcc/src/pic14/gen.c:4138:genAnd
                      02851 ;;      1109 rIdx = r0x1048 
02F5   ???? ????      02852         BANKSEL r0x1011
02F7   05??           02853         ANDWF   r0x1011,F
                      02854 ;;; /home/sdcc-builder/build/sdcc-build/orig/sdcc/src/pic14/gen.c:2316:resultRemat *{*
                      02855 ;;; /home/sdcc-builder/build/sdcc-build/orig/sdcc/src/pic14/gen.c:5418:genGenericShift *{*
                      02856 ;; ***  genGenericShift  5421
                      02857 ;;      694 register type nRegs=1
                      02858 ;;      694 register type nRegs=1
                      02859 ;;      694 register type nRegs=1
                      02860 ;; ***  mov2w  1381  offset=0
                      02861 ;; >>> /home/sdcc-builder/build/sdcc-build/orig/sdcc/src/pic14/gen.c:1386:mov2w
                      02862 ;;      1109 rIdx = r0x104A 
02F8   08??           02863         MOVF    r0x1013,W
                      02864 ;; >>> /home/sdcc-builder/build/sdcc-build/orig/sdcc/src/pic14/gen.c:1393:movwf
                      02865 ;;      1109 rIdx = r0x104B 
02F9   00??           02866         MOVWF   r0x1014
                      02867 ;; ***  addSign  861
                      02868 ;;; /home/sdcc-builder/build/sdcc-build/orig/sdcc/src/pic14/genarith.c:862:addSign *{*
                      02869 ;; ***  mov2w  1381  offset=0
                      02870 ;; >>> /home/sdcc-builder/build/sdcc-build/orig/sdcc/src/pic14/gen.c:1386:mov2w
                      02871 ;;      1109 rIdx = r0x1049 
02FA   08??           02872         MOVF    r0x1012,W
                      02873 ;; >>> /home/sdcc-builder/build/sdcc-build/orig/sdcc/src/pic14/gen.c:5492:genGenericShift
02FB   3C00           02874         SUBLW   0x00
                      02875 ;; >>> /home/sdcc-builder/build/sdcc-build/orig/sdcc/src/pic14/gen.c:5494:genGenericShift
02FC   1903           02876         BTFSC   STATUS,2
                      02877 ;; >>> /home/sdcc-builder/build/sdcc-build/orig/sdcc/src/pic14/gen.c:5495:genGenericShift
                      02878 ;; ***  popGetLabel  key=25, label offset 4
02FD   2???           02879         GOTO    _00129_DS_
                      02880 ;;; /home/sdcc-builder/build/sdcc-build/orig/sdcc/src/pic14/gen.c:5369:genMultiAsm *{*
                      02881 ;; ***  genMultiAsm  5370
gpasm-1.4.0 #1106 (Oct  6 2014) obj\Debug\gpi   6-23-2020  11:52:00         PAGE 56


LOC    OBJECT CODE    LINE  SOURCE TEXT
  VALUE

                      02882 ;; >>> /home/sdcc-builder/build/sdcc-build/orig/sdcc/src/pic14/gen.c:5387:genMultiAsm
                      02883 ;;      1109 rIdx = r0x104B 
02FE                  02884 _00128_DS_
02FE   ???? ????      02885         BANKSEL r0x1014
0300   0D??           02886         RLF     r0x1014,F
                      02887 ;; >>> /home/sdcc-builder/build/sdcc-build/orig/sdcc/src/pic14/gen.c:5501:genGenericShift
0301   3E01           02888         ADDLW   0x01
                      02889 ;; >>> /home/sdcc-builder/build/sdcc-build/orig/sdcc/src/pic14/gen.c:5502:genGenericShift
0302   1C03           02890         BTFSS   STATUS,0
                      02891 ;; >>> /home/sdcc-builder/build/sdcc-build/orig/sdcc/src/pic14/gen.c:5503:genGenericShift
                      02892 ;; ***  popGetLabel  key=24, label offset 4
0303   2???           02893         GOTO    _00128_DS_
                      02894 ;;; /home/sdcc-builder/build/sdcc-build/orig/sdcc/src/pic14/gen.c:2316:resultRemat *{*
                      02895 ;;; /home/sdcc-builder/build/sdcc-build/orig/sdcc/src/pic14/gen.c:4220:genOr *{*
                      02896 ;; ***  genOr  4221
                      02897 ;;      694 register type nRegs=1
                      02898 ;;      694 register type nRegs=1
                      02899 ;; ***  aopForSym 315
                      02900 ;;      327 sym->rname = _TRISC, size = 1
                      02901 ;;      line = 4227 result AOP_DIR=_TRISC, size=1, left AOP_REG=r0x1048, size=1, right AOP_REG=r0x104B, 
                            size=1
                      02902 ;;      line = 4253 result AOP_DIR=_TRISC, size=1, left AOP_REG=r0x1048, size=1, right AOP_REG=r0x104B, 
                            size=1
                      02903 ;; >>> /home/sdcc-builder/build/sdcc-build/orig/sdcc/src/pic14/gen.c:4479:genOr
                      02904 ;;      1109 rIdx = r0x104B 
0304                  02905 _00129_DS_
0304   ???? ????      02906         BANKSEL r0x1014
0306   08??           02907         MOVF    r0x1014,W
                      02908 ;; >>> /home/sdcc-builder/build/sdcc-build/orig/sdcc/src/pic14/gen.c:4480:genOr
                      02909 ;;      1109 rIdx = r0x1048 
0307   04??           02910         IORWF   r0x1011,W
                      02911 ;; >>> /home/sdcc-builder/build/sdcc-build/orig/sdcc/src/pic14/gen.c:4481:genOr
                      02912 ;;      1009
                      02913 ;;      1028  _TRISC   offset=0
0308   ???? ????      02914         BANKSEL _TRISC
030A   00??           02915         MOVWF   _TRISC
                      02916 ;;; /home/sdcc-builder/build/sdcc-build/orig/sdcc/src/pic14/gen.c:2316:resultRemat *{*
                      02917 ;;; /home/sdcc-builder/build/sdcc-build/orig/sdcc/src/pic14/gen.c:2778:genGoto *{*
                      02918 ;; >>> /home/sdcc-builder/build/sdcc-build/orig/sdcc/src/pic14/gen.c:2780:genGoto
                      02919 ;; ***  popGetLabel  key=7, label offset 4
                      02920         .line   20; "gpio.c"    break;
030B   2???           02921         GOTO    _00111_DS_
                      02922 ;;; /home/sdcc-builder/build/sdcc-build/orig/sdcc/src/pic14/gen.c:2316:resultRemat *{*
                      02923 ;;; /home/sdcc-builder/build/sdcc-build/orig/sdcc/src/pic14/gen.c:2760:genLabel *{*
                      02924 ;; ***  genLabel  2763
                      02925 ;;; /home/sdcc-builder/build/sdcc-build/orig/sdcc/src/pic14/gen.c:2316:resultRemat *{*
                      02926 ;;; /home/sdcc-builder/build/sdcc-build/orig/sdcc/src/pic14/gen.c:5418:genGenericShift *{*
                      02927 ;; ***  genGenericShift  5421
                      02928 ;;      694 register type nRegs=1
                      02929 ;;      694 register type nRegs=1
                      02930 ;; ***  mov2w  1381  offset=0
                      02931 ;; >>> /home/sdcc-builder/build/sdcc-build/orig/sdcc/src/pic14/gen.c:1384:mov2w
030C                  02932 _00108_DS_
gpasm-1.4.0 #1106 (Oct  6 2014) obj\Debug\gpi   6-23-2020  11:52:00         PAGE 57


LOC    OBJECT CODE    LINE  SOURCE TEXT
  VALUE

                      02933         .line   22; "gpio.c"    SET_REGISTER_PIN(TRISD, pin, direction);
030C   3001           02934         MOVLW   0x01
                      02935 ;; >>> /home/sdcc-builder/build/sdcc-build/orig/sdcc/src/pic14/gen.c:1393:movwf
                      02936 ;;      1109 rIdx = r0x1048 
030D   ???? ????      02937         BANKSEL r0x1011
030F   00??           02938         MOVWF   r0x1011
                      02939 ;; ***  addSign  861
                      02940 ;;; /home/sdcc-builder/build/sdcc-build/orig/sdcc/src/pic14/genarith.c:862:addSign *{*
                      02941 ;; ***  mov2w  1381  offset=0
                      02942 ;; >>> /home/sdcc-builder/build/sdcc-build/orig/sdcc/src/pic14/gen.c:1386:mov2w
                      02943 ;;      1109 rIdx = r0x1049 
0310   08??           02944         MOVF    r0x1012,W
                      02945 ;; >>> /home/sdcc-builder/build/sdcc-build/orig/sdcc/src/pic14/gen.c:5492:genGenericShift
0311   3C00           02946         SUBLW   0x00
                      02947 ;; >>> /home/sdcc-builder/build/sdcc-build/orig/sdcc/src/pic14/gen.c:5494:genGenericShift
0312   1903           02948         BTFSC   STATUS,2
                      02949 ;; >>> /home/sdcc-builder/build/sdcc-build/orig/sdcc/src/pic14/gen.c:5495:genGenericShift
                      02950 ;; ***  popGetLabel  key=27, label offset 4
0313   2???           02951         GOTO    _00131_DS_
                      02952 ;;; /home/sdcc-builder/build/sdcc-build/orig/sdcc/src/pic14/gen.c:5369:genMultiAsm *{*
                      02953 ;; ***  genMultiAsm  5370
                      02954 ;; >>> /home/sdcc-builder/build/sdcc-build/orig/sdcc/src/pic14/gen.c:5387:genMultiAsm
                      02955 ;;      1109 rIdx = r0x1048 
0314                  02956 _00130_DS_
0314   ???? ????      02957         BANKSEL r0x1011
0316   0D??           02958         RLF     r0x1011,F
                      02959 ;; >>> /home/sdcc-builder/build/sdcc-build/orig/sdcc/src/pic14/gen.c:5501:genGenericShift
0317   3E01           02960         ADDLW   0x01
                      02961 ;; >>> /home/sdcc-builder/build/sdcc-build/orig/sdcc/src/pic14/gen.c:5502:genGenericShift
0318   1C03           02962         BTFSS   STATUS,0
                      02963 ;; >>> /home/sdcc-builder/build/sdcc-build/orig/sdcc/src/pic14/gen.c:5503:genGenericShift
                      02964 ;; ***  popGetLabel  key=26, label offset 4
0319   2???           02965         GOTO    _00130_DS_
                      02966 ;;; /home/sdcc-builder/build/sdcc-build/orig/sdcc/src/pic14/gen.c:2316:resultRemat *{*
                      02967 ;;; /home/sdcc-builder/build/sdcc-build/orig/sdcc/src/pic14/gen.c:1609:genCpl *{*
                      02968 ;; ***  genCpl  1611
                      02969 ;;      694 register type nRegs=1
                      02970 ;;      694 register type nRegs=1
                      02971 ;; >>> /home/sdcc-builder/build/sdcc-build/orig/sdcc/src/pic14/gen.c:1631:genCpl
                      02972 ;;      1109 rIdx = r0x1048 
031A                  02973 _00131_DS_
031A   ???? ????      02974         BANKSEL r0x1011
031C   09??           02975         COMF    r0x1011,F
031D   ???? ????      02976         BANKSEL _TRISD
031F   08??           02977         MOVF    _TRISD,W
                      02978 ;; >>> /home/sdcc-builder/build/sdcc-build/orig/sdcc/src/pic14/gen.c:4138:genAnd
                      02979 ;;      1109 rIdx = r0x1048 
0320   ???? ????      02980         BANKSEL r0x1011
0322   05??           02981         ANDWF   r0x1011,F
                      02982 ;;; /home/sdcc-builder/build/sdcc-build/orig/sdcc/src/pic14/gen.c:2316:resultRemat *{*
                      02983 ;;; /home/sdcc-builder/build/sdcc-build/orig/sdcc/src/pic14/gen.c:5418:genGenericShift *{*
                      02984 ;; ***  genGenericShift  5421
                      02985 ;;      694 register type nRegs=1
gpasm-1.4.0 #1106 (Oct  6 2014) obj\Debug\gpi   6-23-2020  11:52:00         PAGE 58


LOC    OBJECT CODE    LINE  SOURCE TEXT
  VALUE

                      02986 ;;      694 register type nRegs=1
                      02987 ;;      694 register type nRegs=1
                      02988 ;; ***  mov2w  1381  offset=0
                      02989 ;; >>> /home/sdcc-builder/build/sdcc-build/orig/sdcc/src/pic14/gen.c:1386:mov2w
                      02990 ;;      1109 rIdx = r0x104A 
0323   08??           02991         MOVF    r0x1013,W
                      02992 ;; >>> /home/sdcc-builder/build/sdcc-build/orig/sdcc/src/pic14/gen.c:1393:movwf
                      02993 ;;      1109 rIdx = r0x104B 
0324   00??           02994         MOVWF   r0x1014
                      02995 ;; ***  addSign  861
                      02996 ;;; /home/sdcc-builder/build/sdcc-build/orig/sdcc/src/pic14/genarith.c:862:addSign *{*
                      02997 ;; ***  mov2w  1381  offset=0
                      02998 ;; >>> /home/sdcc-builder/build/sdcc-build/orig/sdcc/src/pic14/gen.c:1386:mov2w
                      02999 ;;      1109 rIdx = r0x1049 
0325   08??           03000         MOVF    r0x1012,W
                      03001 ;; >>> /home/sdcc-builder/build/sdcc-build/orig/sdcc/src/pic14/gen.c:5492:genGenericShift
0326   3C00           03002         SUBLW   0x00
                      03003 ;; >>> /home/sdcc-builder/build/sdcc-build/orig/sdcc/src/pic14/gen.c:5494:genGenericShift
0327   1903           03004         BTFSC   STATUS,2
                      03005 ;; >>> /home/sdcc-builder/build/sdcc-build/orig/sdcc/src/pic14/gen.c:5495:genGenericShift
                      03006 ;; ***  popGetLabel  key=29, label offset 4
0328   2???           03007         GOTO    _00133_DS_
                      03008 ;;; /home/sdcc-builder/build/sdcc-build/orig/sdcc/src/pic14/gen.c:5369:genMultiAsm *{*
                      03009 ;; ***  genMultiAsm  5370
                      03010 ;; >>> /home/sdcc-builder/build/sdcc-build/orig/sdcc/src/pic14/gen.c:5387:genMultiAsm
                      03011 ;;      1109 rIdx = r0x104B 
0329                  03012 _00132_DS_
0329   ???? ????      03013         BANKSEL r0x1014
032B   0D??           03014         RLF     r0x1014,F
                      03015 ;; >>> /home/sdcc-builder/build/sdcc-build/orig/sdcc/src/pic14/gen.c:5501:genGenericShift
032C   3E01           03016         ADDLW   0x01
                      03017 ;; >>> /home/sdcc-builder/build/sdcc-build/orig/sdcc/src/pic14/gen.c:5502:genGenericShift
032D   1C03           03018         BTFSS   STATUS,0
                      03019 ;; >>> /home/sdcc-builder/build/sdcc-build/orig/sdcc/src/pic14/gen.c:5503:genGenericShift
                      03020 ;; ***  popGetLabel  key=28, label offset 4
032E   2???           03021         GOTO    _00132_DS_
                      03022 ;;; /home/sdcc-builder/build/sdcc-build/orig/sdcc/src/pic14/gen.c:2316:resultRemat *{*
                      03023 ;;; /home/sdcc-builder/build/sdcc-build/orig/sdcc/src/pic14/gen.c:4220:genOr *{*
                      03024 ;; ***  genOr  4221
                      03025 ;;      694 register type nRegs=1
                      03026 ;;      694 register type nRegs=1
                      03027 ;; ***  aopForSym 315
                      03028 ;;      327 sym->rname = _TRISD, size = 1
                      03029 ;;      line = 4227 result AOP_DIR=_TRISD, size=1, left AOP_REG=r0x1048, size=1, right AOP_REG=r0x104B, 
                            size=1
                      03030 ;;      line = 4253 result AOP_DIR=_TRISD, size=1, left AOP_REG=r0x1048, size=1, right AOP_REG=r0x104B, 
                            size=1
                      03031 ;; >>> /home/sdcc-builder/build/sdcc-build/orig/sdcc/src/pic14/gen.c:4479:genOr
                      03032 ;;      1109 rIdx = r0x104B 
032F                  03033 _00133_DS_
032F   ???? ????      03034         BANKSEL r0x1014
0331   08??           03035         MOVF    r0x1014,W
                      03036 ;; >>> /home/sdcc-builder/build/sdcc-build/orig/sdcc/src/pic14/gen.c:4480:genOr
gpasm-1.4.0 #1106 (Oct  6 2014) obj\Debug\gpi   6-23-2020  11:52:00         PAGE 59


LOC    OBJECT CODE    LINE  SOURCE TEXT
  VALUE

                      03037 ;;      1109 rIdx = r0x1048 
0332   04??           03038         IORWF   r0x1011,W
                      03039 ;; >>> /home/sdcc-builder/build/sdcc-build/orig/sdcc/src/pic14/gen.c:4481:genOr
                      03040 ;;      1009
                      03041 ;;      1028  _TRISD   offset=0
0333   ???? ????      03042         BANKSEL _TRISD
0335   00??           03043         MOVWF   _TRISD
                      03044 ;;; /home/sdcc-builder/build/sdcc-build/orig/sdcc/src/pic14/gen.c:2316:resultRemat *{*
                      03045 ;;; /home/sdcc-builder/build/sdcc-build/orig/sdcc/src/pic14/gen.c:2778:genGoto *{*
                      03046 ;; >>> /home/sdcc-builder/build/sdcc-build/orig/sdcc/src/pic14/gen.c:2780:genGoto
                      03047 ;; ***  popGetLabel  key=7, label offset 4
                      03048         .line   23; "gpio.c"    break;
0336   2???           03049         GOTO    _00111_DS_
                      03050 ;;; /home/sdcc-builder/build/sdcc-build/orig/sdcc/src/pic14/gen.c:2316:resultRemat *{*
                      03051 ;;; /home/sdcc-builder/build/sdcc-build/orig/sdcc/src/pic14/gen.c:2760:genLabel *{*
                      03052 ;; ***  genLabel  2763
                      03053 ;;; /home/sdcc-builder/build/sdcc-build/orig/sdcc/src/pic14/gen.c:2316:resultRemat *{*
                      03054 ;;; /home/sdcc-builder/build/sdcc-build/orig/sdcc/src/pic14/gen.c:5418:genGenericShift *{*
                      03055 ;; ***  genGenericShift  5421
                      03056 ;;      694 register type nRegs=1
                      03057 ;;      694 register type nRegs=1
                      03058 ;; ***  mov2w  1381  offset=0
                      03059 ;; >>> /home/sdcc-builder/build/sdcc-build/orig/sdcc/src/pic14/gen.c:1384:mov2w
0337                  03060 _00109_DS_
                      03061         .line   25; "gpio.c"    SET_REGISTER_PIN(TRISE, pin, direction);
0337   3001           03062         MOVLW   0x01
                      03063 ;; >>> /home/sdcc-builder/build/sdcc-build/orig/sdcc/src/pic14/gen.c:1393:movwf
                      03064 ;;      1109 rIdx = r0x1048 
0338   ???? ????      03065         BANKSEL r0x1011
033A   00??           03066         MOVWF   r0x1011
                      03067 ;; ***  addSign  861
                      03068 ;;; /home/sdcc-builder/build/sdcc-build/orig/sdcc/src/pic14/genarith.c:862:addSign *{*
                      03069 ;; ***  mov2w  1381  offset=0
                      03070 ;; >>> /home/sdcc-builder/build/sdcc-build/orig/sdcc/src/pic14/gen.c:1386:mov2w
                      03071 ;;      1109 rIdx = r0x1049 
033B   08??           03072         MOVF    r0x1012,W
                      03073 ;; >>> /home/sdcc-builder/build/sdcc-build/orig/sdcc/src/pic14/gen.c:5492:genGenericShift
033C   3C00           03074         SUBLW   0x00
                      03075 ;; >>> /home/sdcc-builder/build/sdcc-build/orig/sdcc/src/pic14/gen.c:5494:genGenericShift
033D   1903           03076         BTFSC   STATUS,2
                      03077 ;; >>> /home/sdcc-builder/build/sdcc-build/orig/sdcc/src/pic14/gen.c:5495:genGenericShift
                      03078 ;; ***  popGetLabel  key=31, label offset 4
033E   2???           03079         GOTO    _00135_DS_
                      03080 ;;; /home/sdcc-builder/build/sdcc-build/orig/sdcc/src/pic14/gen.c:5369:genMultiAsm *{*
                      03081 ;; ***  genMultiAsm  5370
                      03082 ;; >>> /home/sdcc-builder/build/sdcc-build/orig/sdcc/src/pic14/gen.c:5387:genMultiAsm
                      03083 ;;      1109 rIdx = r0x1048 
033F                  03084 _00134_DS_
033F   ???? ????      03085         BANKSEL r0x1011
0341   0D??           03086         RLF     r0x1011,F
                      03087 ;; >>> /home/sdcc-builder/build/sdcc-build/orig/sdcc/src/pic14/gen.c:5501:genGenericShift
0342   3E01           03088         ADDLW   0x01
                      03089 ;; >>> /home/sdcc-builder/build/sdcc-build/orig/sdcc/src/pic14/gen.c:5502:genGenericShift
gpasm-1.4.0 #1106 (Oct  6 2014) obj\Debug\gpi   6-23-2020  11:52:00         PAGE 60


LOC    OBJECT CODE    LINE  SOURCE TEXT
  VALUE

0343   1C03           03090         BTFSS   STATUS,0
                      03091 ;; >>> /home/sdcc-builder/build/sdcc-build/orig/sdcc/src/pic14/gen.c:5503:genGenericShift
                      03092 ;; ***  popGetLabel  key=30, label offset 4
0344   2???           03093         GOTO    _00134_DS_
                      03094 ;;; /home/sdcc-builder/build/sdcc-build/orig/sdcc/src/pic14/gen.c:2316:resultRemat *{*
                      03095 ;;; /home/sdcc-builder/build/sdcc-build/orig/sdcc/src/pic14/gen.c:1609:genCpl *{*
                      03096 ;; ***  genCpl  1611
                      03097 ;;      694 register type nRegs=1
                      03098 ;;      694 register type nRegs=1
                      03099 ;; >>> /home/sdcc-builder/build/sdcc-build/orig/sdcc/src/pic14/gen.c:1631:genCpl
                      03100 ;;      1109 rIdx = r0x1048 
0345                  03101 _00135_DS_
0345   ???? ????      03102         BANKSEL r0x1011
0347   09??           03103         COMF    r0x1011,F
0348   ???? ????      03104         BANKSEL _TRISE
034A   08??           03105         MOVF    _TRISE,W
                      03106 ;; >>> /home/sdcc-builder/build/sdcc-build/orig/sdcc/src/pic14/gen.c:4138:genAnd
                      03107 ;;      1109 rIdx = r0x1048 
034B   ???? ????      03108         BANKSEL r0x1011
034D   05??           03109         ANDWF   r0x1011,F
                      03110 ;;; /home/sdcc-builder/build/sdcc-build/orig/sdcc/src/pic14/gen.c:2316:resultRemat *{*
                      03111 ;;; /home/sdcc-builder/build/sdcc-build/orig/sdcc/src/pic14/gen.c:5418:genGenericShift *{*
                      03112 ;; ***  genGenericShift  5421
                      03113 ;;      694 register type nRegs=1
                      03114 ;;      694 register type nRegs=1
                      03115 ;;      694 register type nRegs=1
                      03116 ;; ***  mov2w  1381  offset=0
                      03117 ;; >>> /home/sdcc-builder/build/sdcc-build/orig/sdcc/src/pic14/gen.c:1386:mov2w
                      03118 ;;      1109 rIdx = r0x104A 
034E   08??           03119         MOVF    r0x1013,W
                      03120 ;; >>> /home/sdcc-builder/build/sdcc-build/orig/sdcc/src/pic14/gen.c:1393:movwf
                      03121 ;;      1109 rIdx = r0x104B 
034F   00??           03122         MOVWF   r0x1014
                      03123 ;; ***  addSign  861
                      03124 ;;; /home/sdcc-builder/build/sdcc-build/orig/sdcc/src/pic14/genarith.c:862:addSign *{*
                      03125 ;; ***  mov2w  1381  offset=0
                      03126 ;; >>> /home/sdcc-builder/build/sdcc-build/orig/sdcc/src/pic14/gen.c:1386:mov2w
                      03127 ;;      1109 rIdx = r0x1049 
0350   08??           03128         MOVF    r0x1012,W
                      03129 ;; >>> /home/sdcc-builder/build/sdcc-build/orig/sdcc/src/pic14/gen.c:5492:genGenericShift
0351   3C00           03130         SUBLW   0x00
                      03131 ;; >>> /home/sdcc-builder/build/sdcc-build/orig/sdcc/src/pic14/gen.c:5494:genGenericShift
0352   1903           03132         BTFSC   STATUS,2
                      03133 ;; >>> /home/sdcc-builder/build/sdcc-build/orig/sdcc/src/pic14/gen.c:5495:genGenericShift
                      03134 ;; ***  popGetLabel  key=33, label offset 4
0353   2???           03135         GOTO    _00137_DS_
                      03136 ;;; /home/sdcc-builder/build/sdcc-build/orig/sdcc/src/pic14/gen.c:5369:genMultiAsm *{*
                      03137 ;; ***  genMultiAsm  5370
                      03138 ;; >>> /home/sdcc-builder/build/sdcc-build/orig/sdcc/src/pic14/gen.c:5387:genMultiAsm
                      03139 ;;      1109 rIdx = r0x104B 
0354                  03140 _00136_DS_
0354   ???? ????      03141         BANKSEL r0x1014
0356   0D??           03142         RLF     r0x1014,F
gpasm-1.4.0 #1106 (Oct  6 2014) obj\Debug\gpi   6-23-2020  11:52:00         PAGE 61


LOC    OBJECT CODE    LINE  SOURCE TEXT
  VALUE

                      03143 ;; >>> /home/sdcc-builder/build/sdcc-build/orig/sdcc/src/pic14/gen.c:5501:genGenericShift
0357   3E01           03144         ADDLW   0x01
                      03145 ;; >>> /home/sdcc-builder/build/sdcc-build/orig/sdcc/src/pic14/gen.c:5502:genGenericShift
0358   1C03           03146         BTFSS   STATUS,0
                      03147 ;; >>> /home/sdcc-builder/build/sdcc-build/orig/sdcc/src/pic14/gen.c:5503:genGenericShift
                      03148 ;; ***  popGetLabel  key=32, label offset 4
0359   2???           03149         GOTO    _00136_DS_
                      03150 ;;; /home/sdcc-builder/build/sdcc-build/orig/sdcc/src/pic14/gen.c:2316:resultRemat *{*
                      03151 ;;; /home/sdcc-builder/build/sdcc-build/orig/sdcc/src/pic14/gen.c:4220:genOr *{*
                      03152 ;; ***  genOr  4221
                      03153 ;;      694 register type nRegs=1
                      03154 ;;      694 register type nRegs=1
                      03155 ;; ***  aopForSym 315
                      03156 ;;      327 sym->rname = _TRISE, size = 1
                      03157 ;;      line = 4227 result AOP_DIR=_TRISE, size=1, left AOP_REG=r0x1048, size=1, right AOP_REG=r0x104B, 
                            size=1
                      03158 ;;      line = 4253 result AOP_DIR=_TRISE, size=1, left AOP_REG=r0x1048, size=1, right AOP_REG=r0x104B, 
                            size=1
                      03159 ;; >>> /home/sdcc-builder/build/sdcc-build/orig/sdcc/src/pic14/gen.c:4479:genOr
                      03160 ;;      1109 rIdx = r0x104B 
035A                  03161 _00137_DS_
035A   ???? ????      03162         BANKSEL r0x1014
035C   08??           03163         MOVF    r0x1014,W
                      03164 ;; >>> /home/sdcc-builder/build/sdcc-build/orig/sdcc/src/pic14/gen.c:4480:genOr
                      03165 ;;      1109 rIdx = r0x1048 
035D   04??           03166         IORWF   r0x1011,W
                      03167 ;; >>> /home/sdcc-builder/build/sdcc-build/orig/sdcc/src/pic14/gen.c:4481:genOr
                      03168 ;;      1009
                      03169 ;;      1028  _TRISE   offset=0
035E   ???? ????      03170         BANKSEL _TRISE
0360   00??           03171         MOVWF   _TRISE
                      03172 ;;; /home/sdcc-builder/build/sdcc-build/orig/sdcc/src/pic14/gen.c:2316:resultRemat *{*
                      03173 ;;; /home/sdcc-builder/build/sdcc-build/orig/sdcc/src/pic14/gen.c:2760:genLabel *{*
                      03174 ;; ***  genLabel  2763
                      03175 ;;; /home/sdcc-builder/build/sdcc-build/orig/sdcc/src/pic14/gen.c:2316:resultRemat *{*
                      03176 ;;; /home/sdcc-builder/build/sdcc-build/orig/sdcc/src/pic14/gen.c:2528:genEndFunction *{*
                      03177 ;; ***  genEndFunction  2530
0361                  03178 _00111_DS_
                      03179         .line   27; "gpio.c"    }
0361   0008           03180         RETURN  
                      03181 ; exit point of _GPIO_InitPortPin
                      03182 ;;; /home/sdcc-builder/build/sdcc-build/orig/sdcc/src/pic14/gen.c:7426:genpic14Code *{*
                      03183 
                      03184 
                      03185 ;       code size estimation:
                      03186 ;         600+  133 =   733 instructions ( 1732 byte)
                      03187 
                      03188         end
gpasm-1.4.0 #1106 (Oct  6 2014) obj\Debug\gpi   6-23-2020  11:52:00         PAGE 62


SYMBOL TABLE
  LABEL                             VALUE

ACKDT                             00000005
ACKEN                             00000004
ACKSTAT                           00000006
ADCON0                            0000001F
ADCON1                            0000009F
ADCS0                             00000006
ADCS1                             00000007
ADCS2                             00000006
ADDEN                             00000003
ADFM                              00000007
ADIE                              00000006
ADIF                              00000006
ADON                              00000000
ADRESH                            0000001E
ADRESL                            0000009E
BCLIE                             00000003
BCLIF                             00000003
BF                                00000000
BRGH                              00000002
C                                 00000000
C1INV                             00000004
C1OUT                             00000006
C2INV                             00000005
C2OUT                             00000007
CCP1CON                           00000017
CCP1IE                            00000002
CCP1IF                            00000002
CCP1M0                            00000000
CCP1M1                            00000001
CCP1M2                            00000002
CCP1M3                            00000003
CCP1X                             00000005
CCP1Y                             00000004
CCP2CON                           0000001D
CCP2IE                            00000000
CCP2IF                            00000000
CCP2M0                            00000000
CCP2M1                            00000001
CCP2M2                            00000002
CCP2M3                            00000003
CCP2X                             00000005
CCP2Y                             00000004
CCPR1                             00000015
CCPR1H                            00000016
CCPR1L                            00000015
CCPR2                             0000001B
CCPR2H                            0000001C
CCPR2L                            0000001B
CHS0                              00000003
CHS1                              00000004
CHS2                              00000005
CIS                               00000003
CKE                               00000006
gpasm-1.4.0 #1106 (Oct  6 2014) obj\Debug\gpi   6-23-2020  11:52:00         PAGE 63


SYMBOL TABLE
  LABEL                             VALUE 

CKP                               00000004
CM0                               00000000
CM1                               00000001
CM2                               00000002
CMCON                             0000009C
CMIE                              00000006
CMIF                              00000006
CREN                              00000004
CSRC                              00000007
CVR0                              00000000
CVR1                              00000001
CVR2                              00000002
CVR3                              00000003
CVRCON                            0000009D
CVREN                             00000007
CVROE                             00000006
CVRR                              00000005
D                                 00000005
DATA_ADDRESS                      00000005
DC                                00000001
D_A                               00000005
D_NOT_A                           00000005
EEADR                             0000010D
EEADRH                            0000010F
EECON1                            0000018C
EECON2                            0000018D
EEDATA                            0000010C
EEDATH                            0000010E
EEIE                              00000004
EEIF                              00000004
EEPGD                             00000007
F                                 00000001
FERR                              00000002
FSR                               00000004
GCEN                              00000007
GIE                               00000007
GO                                00000002
GO_DONE                           00000002
GO_NOT_DONE                       00000002
I2C_DATA                          00000005
I2C_READ                          00000002
I2C_START                         00000003
I2C_STOP                          00000004
IBF                               00000007
IBOV                              00000005
INDF                              00000000
INTCON                            0000000B
INTE                              00000004
INTEDG                            00000006
INTF                              00000001
IRP                               00000007
NOT_A                             00000005
NOT_ADDRESS                       00000005
gpasm-1.4.0 #1106 (Oct  6 2014) obj\Debug\gpi   6-23-2020  11:52:00         PAGE 64


SYMBOL TABLE
  LABEL                             VALUE 

NOT_BO                            00000000
NOT_BOR                           00000000
NOT_DONE                          00000002
NOT_PD                            00000003
NOT_POR                           00000001
NOT_RBPU                          00000007
NOT_RC8                           00000006
NOT_T1SYNC                        00000002
NOT_TO                            00000004
NOT_TX8                           00000006
NOT_W                             00000002
NOT_WRITE                         00000002
OBF                               00000006
OERR                              00000001
OPTION_REG                        00000081
P                                 00000004
PCFG0                             00000000
PCFG1                             00000001
PCFG2                             00000002
PCFG3                             00000003
PCL                               00000002
PCLATH                            0000000A
PCON                              0000008E
PEIE                              00000006
PEN                               00000002
PIE1                              0000008C
PIE2                              0000008D
PIR1                              0000000C
PIR2                              0000000D
PORTA                             00000005
PORTB                             00000006
PORTC                             00000007
PORTD                             00000008
PORTE                             00000009
PR2                               00000092
PS0                               00000000
PS1                               00000001
PS2                               00000002
PSA                               00000003
PSAVE                             00000000
PSPIE                             00000007
PSPIF                             00000007
PSPMODE                           00000004
R                                 00000002
RA0                               00000000
RA1                               00000001
RA2                               00000002
RA3                               00000003
RA4                               00000004
RA5                               00000005
RB0                               00000000
RB1                               00000001
RB2                               00000002
gpasm-1.4.0 #1106 (Oct  6 2014) obj\Debug\gpi   6-23-2020  11:52:00         PAGE 65


SYMBOL TABLE
  LABEL                             VALUE 

RB3                               00000003
RB4                               00000004
RB5                               00000005
RB6                               00000006
RB7                               00000007
RBIE                              00000003
RBIF                              00000000
RC0                               00000000
RC1                               00000001
RC2                               00000002
RC3                               00000003
RC4                               00000004
RC5                               00000005
RC6                               00000006
RC7                               00000007
RC8_9                             00000006
RC9                               00000006
RCD8                              00000000
RCEN                              00000003
RCIE                              00000005
RCIF                              00000005
RCREG                             0000001A
RCSTA                             00000018
RD                                00000000
RD0                               00000000
RD1                               00000001
RD2                               00000002
RD3                               00000003
RD4                               00000004
RD5                               00000005
RD6                               00000006
RD7                               00000007
RE0                               00000000
RE1                               00000001
RE2                               00000002
READ_WRITE                        00000002
RP0                               00000005
RP1                               00000006
RSEN                              00000001
RX9                               00000006
RX9D                              00000000
R_NOT_W                           00000002
R_W                               00000002
S                                 00000003
SEN                               00000000
SMP                               00000007
SPBRG                             00000099
SPEN                              00000007
SREN                              00000005
SSAVE                             00000000
SSPADD                            00000093
SSPBUF                            00000013
SSPCON                            00000014
gpasm-1.4.0 #1106 (Oct  6 2014) obj\Debug\gpi   6-23-2020  11:52:00         PAGE 66


SYMBOL TABLE
  LABEL                             VALUE 

SSPCON2                           00000091
SSPEN                             00000005
SSPIE                             00000003
SSPIF                             00000003
SSPM0                             00000000
SSPM1                             00000001
SSPM2                             00000002
SSPM3                             00000003
SSPOV                             00000006
SSPSTAT                           00000094
STATUS                            00000003
STK00                             00000000
STK01                             00000000
STK02                             00000000
STK03                             00000000
STK04                             00000000
STK05                             00000000
STK06                             00000000
STK07                             00000000
STK08                             00000000
STK09                             00000000
STK10                             00000000
STK11                             00000000
STK12                             00000000
SYNC                              00000004
T0CS                              00000005
T0IE                              00000005
T0IF                              00000002
T0SE                              00000004
T1CKPS0                           00000004
T1CKPS1                           00000005
T1CON                             00000010
T1INSYNC                          00000002
T1OSCEN                           00000003
T1SYNC                            00000002
T2CKPS0                           00000000
T2CKPS1                           00000001
T2CON                             00000012
TMR0                              00000001
TMR0IE                            00000005
TMR0IF                            00000002
TMR1                              0000000E
TMR1CS                            00000001
TMR1H                             0000000F
TMR1IE                            00000000
TMR1IF                            00000000
TMR1L                             0000000E
TMR1ON                            00000000
TMR2                              00000011
TMR2IE                            00000001
TMR2IF                            00000001
TMR2ON                            00000002
TOUTPS0                           00000003
gpasm-1.4.0 #1106 (Oct  6 2014) obj\Debug\gpi   6-23-2020  11:52:00         PAGE 67


SYMBOL TABLE
  LABEL                             VALUE 

TOUTPS1                           00000004
TOUTPS2                           00000005
TOUTPS3                           00000006
TRISA                             00000085
TRISA0                            00000000
TRISA1                            00000001
TRISA2                            00000002
TRISA3                            00000003
TRISA4                            00000004
TRISA5                            00000005
TRISB                             00000086
TRISB0                            00000000
TRISB1                            00000001
TRISB2                            00000002
TRISB3                            00000003
TRISB4                            00000004
TRISB5                            00000005
TRISB6                            00000006
TRISB7                            00000007
TRISC                             00000087
TRISC0                            00000000
TRISC1                            00000001
TRISC2                            00000002
TRISC3                            00000003
TRISC4                            00000004
TRISC5                            00000005
TRISC6                            00000006
TRISC7                            00000007
TRISD                             00000088
TRISD0                            00000000
TRISD1                            00000001
TRISD2                            00000002
TRISD3                            00000003
TRISD4                            00000004
TRISD5                            00000005
TRISD6                            00000006
TRISD7                            00000007
TRISE                             00000089
TRISE0                            00000000
TRISE1                            00000001
TRISE2                            00000002
TRMT                              00000001
TX8_9                             00000006
TX9                               00000006
TX9D                              00000000
TXD8                              00000000
TXEN                              00000005
TXIE                              00000004
TXIF                              00000004
TXREG                             00000019
TXSTA                             00000098
UA                                00000001
W                                 00000000
gpasm-1.4.0 #1106 (Oct  6 2014) obj\Debug\gpi   6-23-2020  11:52:00         PAGE 68


SYMBOL TABLE
  LABEL                             VALUE 

WCOL                              00000007
WR                                00000001
WREN                              00000002
WRERR                             00000003
WSAVE                             00000000
Z                                 00000002
_00001_DS_                        00000017
_00002_DS_                        00000179
_00003_DS_                        00000285
_00105_DS_                        0000028B
_00106_DS_                        000002B6
_00107_DS_                        000002E1
_00108_DS_                        0000030C
_00109_DS_                        00000337
_00111_DS_                        00000361
_00117_DS_                        00000286
_00118_DS_                        00000293
_00119_DS_                        00000299
_00120_DS_                        000002A8
_00121_DS_                        000002AE
_00122_DS_                        000002BE
_00123_DS_                        000002C4
_00124_DS_                        000002D3
_00125_DS_                        000002D9
_00126_DS_                        000002E9
_00127_DS_                        000002EF
_00128_DS_                        000002FE
_00129_DS_                        00000304
_00130_DS_                        00000314
_00131_DS_                        0000031A
_00132_DS_                        00000329
_00133_DS_                        0000032F
_00134_DS_                        0000033F
_00135_DS_                        00000345
_00136_DS_                        00000354
_00137_DS_                        0000035A
_00143_DS_                        0000025D
_00152_DS_                        0000017F
_00153_DS_                        000001AA
_00154_DS_                        000001D5
_00155_DS_                        00000200
_00156_DS_                        0000022B
_00158_DS_                        00000255
_00164_DS_                        0000017A
_00165_DS_                        00000187
_00166_DS_                        0000018D
_00167_DS_                        0000019C
_00168_DS_                        000001A2
_00169_DS_                        000001B2
_00170_DS_                        000001B8
_00171_DS_                        000001C7
_00172_DS_                        000001CD
_00173_DS_                        000001DD
gpasm-1.4.0 #1106 (Oct  6 2014) obj\Debug\gpi   6-23-2020  11:52:00         PAGE 69


SYMBOL TABLE
  LABEL                             VALUE 

_00174_DS_                        000001E3
_00175_DS_                        000001F2
_00176_DS_                        000001F8
_00177_DS_                        00000208
_00178_DS_                        0000020E
_00179_DS_                        0000021D
_00180_DS_                        00000223
_00181_DS_                        00000233
_00182_DS_                        00000239
_00183_DS_                        00000248
_00184_DS_                        0000024E
_00190_DS_                        00000125
_00198_DS_                        0000012F
_00199_DS_                        00000136
_00200_DS_                        00000146
_00201_DS_                        00000150
_00206_DS_                        0000001D
_00207_DS_                        00000050
_00208_DS_                        00000083
_00209_DS_                        000000B6
_00210_DS_                        000000E9
_00211_DS_                        0000011B
_00218_DS_                        00000018
_00219_DS_                        00000027
_00220_DS_                        0000002E
_00221_DS_                        00000041
_00222_DS_                        0000004B
_00223_DS_                        0000005A
_00224_DS_                        00000061
_00225_DS_                        00000074
_00226_DS_                        0000007E
_00227_DS_                        0000008D
_00228_DS_                        00000094
_00229_DS_                        000000A7
_00230_DS_                        000000B1
_00231_DS_                        000000C0
_00232_DS_                        000000C7
_00233_DS_                        000000DA
_00234_DS_                        000000E4
_00235_DS_                        000000F3
_00236_DS_                        000000FA
_00237_DS_                        0000010D
_00238_DS_                        00000117
_ADCON0                           00000000
_ADCON0bits                       00000000
_ADCON1                           00000000
_ADCON1bits                       00000000
_ADRESH                           00000000
_ADRESL                           00000000
_BODEN_OFF                        00003FBF
_BODEN_ON                         00003FFF
_BOREN_OFF                        00003FBF
_BOREN_ON                         00003FFF
gpasm-1.4.0 #1106 (Oct  6 2014) obj\Debug\gpi   6-23-2020  11:52:00         PAGE 70


SYMBOL TABLE
  LABEL                             VALUE 

_CCP1CON                          00000000
_CCP1CONbits                      00000000
_CCP2CON                          00000000
_CCP2CONbits                      00000000
_CCPR1                            00000000
_CCPR1H                           00000000
_CCPR1L                           00000000
_CCPR2                            00000000
_CCPR2H                           00000000
_CCPR2L                           00000000
_CMCON                            00000000
_CMCONbits                        00000000
_CONFIG                           00002007
_CPD_OFF                          00003FFF
_CPD_ON                           00003EFF
_CP_ALL                           00001FFF
_CP_OFF                           00003FFF
_CP_ON                            00001FFF
_CVRCON                           00000000
_CVRCONbits                       00000000
_DEBUG_OFF                        00003FFF
_DEBUG_ON                         000037FF
_DEVID1                           00002006
_EEADR                            00000000
_EEADRH                           00000000
_EECON1                           00000000
_EECON1bits                       00000000
_EECON2                           00000000
_EEDATA                           00000000
_EEDATH                           00000000
_FOSC_EXTRC                       00003FFF
_FOSC_HS                          00003FFE
_FOSC_LP                          00003FFC
_FOSC_XT                          00003FFD
_FSR                              00000000
_GPIO_GetPortPinState             00000000
_GPIO_InitPort                    00000257
_GPIO_InitPortPin                 0000026D
_GPIO_SetPortPinState             00000161
_GPIO_SetPortState                0000011F
_GPIO_Update                      00000256
_HS_OSC                           00003FFE
_IDLOC0                           00002000
_IDLOC1                           00002001
_IDLOC2                           00002002
_IDLOC3                           00002003
_INDF                             00000000
_INTCON                           00000000
_INTCONbits                       00000000
_LP_OSC                           00003FFC
_LVP_OFF                          00003F7F
_LVP_ON                           00003FFF
_OPTION_REG                       00000000
gpasm-1.4.0 #1106 (Oct  6 2014) obj\Debug\gpi   6-23-2020  11:52:00         PAGE 71


SYMBOL TABLE
  LABEL                             VALUE 

_OPTION_REGbits                   00000000
_PCL                              00000000
_PCLATH                           00000000
_PCON                             00000000
_PCONbits                         00000000
_PIE1                             00000000
_PIE1bits                         00000000
_PIE2                             00000000
_PIE2bits                         00000000
_PIR1                             00000000
_PIR1bits                         00000000
_PIR2                             00000000
_PIR2bits                         00000000
_PORTA                            00000000
_PORTAbits                        00000000
_PORTB                            00000000
_PORTBbits                        00000000
_PORTC                            00000000
_PORTCbits                        00000000
_PORTD                            00000000
_PORTDbits                        00000000
_PORTE                            00000000
_PORTEbits                        00000000
_PR2                              00000000
_PWRTE_OFF                        00003FFF
_PWRTE_ON                         00003FF7
_RCREG                            00000000
_RCSTA                            00000000
_RCSTAbits                        00000000
_RC_OSC                           00003FFF
_SPBRG                            00000000
_SSPADD                           00000000
_SSPBUF                           00000000
_SSPCON                           00000000
_SSPCON2                          00000000
_SSPCON2bits                      00000000
_SSPCONbits                       00000000
_SSPSTAT                          00000000
_SSPSTATbits                      00000000
_STATUS                           00000000
_STATUSbits                       00000000
_T1CON                            00000000
_T1CONbits                        00000000
_T2CON                            00000000
_T2CONbits                        00000000
_TMR0                             00000000
_TMR1                             00000000
_TMR1H                            00000000
_TMR1L                            00000000
_TMR2                             00000000
_TRISA                            00000000
_TRISAbits                        00000000
_TRISB                            00000000
gpasm-1.4.0 #1106 (Oct  6 2014) obj\Debug\gpi   6-23-2020  11:52:00         PAGE 72


SYMBOL TABLE
  LABEL                             VALUE 

_TRISBbits                        00000000
_TRISC                            00000000
_TRISCbits                        00000000
_TRISD                            00000000
_TRISDbits                        00000000
_TRISE                            00000000
_TRISEbits                        00000000
_TXREG                            00000000
_TXSTA                            00000000
_TXSTAbits                        00000000
_WDTE_OFF                         00003FFB
_WDTE_ON                          00003FFF
_WDT_OFF                          00003FFB
_WDT_ON                           00003FFF
_WRT_1FOURTH                      00003BFF
_WRT_256                          00003DFF
_WRT_HALF                         000039FF
_WRT_OFF                          00003FFF
_XT_OSC                           00003FFD
__16F877A                         00000001
__CODE_END                        00001FFF
__CODE_START                      00000000
__COMMON_RAM_END                  0000007F
__COMMON_RAM_START                00000070
__EEPROM_END                      000021FF
__EEPROM_START                    00002100
__VECTOR_INT                      00000004
__VECTOR_RESET                    00000000
r0x1000                           00000012
r0x1001                           00000013
r0x1002                           00000014
r0x1003                           00000015
r0x1004                           00000016
r0x1005                           00000017
r0x1006                           00000007
r0x1007                           00000008
r0x1008                           00000009
r0x1009                           0000000A
r0x100A                           0000000B
r0x100B                           0000000C
r0x100C                           0000000D
r0x100D                           0000000F
r0x100E                           0000000E
r0x100F                           00000010
r0x1010                           00000011
r0x1011                           00000000
r0x1012                           00000001
r0x1013                           00000002
r0x1014                           00000003
r0x1015                           00000004
r0x1016                           00000005
r0x1017                           00000006

gpasm-1.4.0 #1106 (Oct  6 2014) obj\Debug\gpi   6-23-2020  11:52:00         PAGE 73




Errors   :     0
Warnings :     0 reported,     0 suppressed
Messages :     0 reported,     0 suppressed

